ARM GAS  C:\Users\KEVIN-~1\AppData\Local\Temp\ccMhmRZ8.s 			page 1


   1              		.syntax unified
   2              		.cpu cortex-m3
   3              		.fpu softvfp
   4              		.eabi_attribute 20, 1
   5              		.eabi_attribute 21, 1
   6              		.eabi_attribute 23, 3
   7              		.eabi_attribute 24, 1
   8              		.eabi_attribute 25, 1
   9              		.eabi_attribute 26, 1
  10              		.eabi_attribute 30, 6
  11              		.eabi_attribute 18, 4
  12              		.thumb
  13              		.file	"PWM.c"
  20 0000 1B010000 		.text
  20      02005C00 
  20      00000201 
  20      FB0E0D00 
  20      01010101 
  21              	.Ltext0:
  22              		.cfi_sections	.debug_frame
  23              		.global	PWM_initVar
  24              		.bss
  25              		.type	PWM_initVar, %object
  26              		.size	PWM_initVar, 1
  27              	PWM_initVar:
  28 0000 00       		.space	1
  29              		.section	.text.PWM_Start,"ax",%progbits
  30              		.align	2
  31              		.global	PWM_Start
  32              		.thumb
  33              		.thumb_func
  34              		.type	PWM_Start, %function
  35              	PWM_Start:
  36              	.LFB0:
  37              		.file 1 ".\\Generated_Source\\PSoC5\\PWM.c"
   1:.\Generated_Source\PSoC5/PWM.c **** /*******************************************************************************
   2:.\Generated_Source\PSoC5/PWM.c **** * File Name: PWM.c  
   3:.\Generated_Source\PSoC5/PWM.c **** * Version 2.20
   4:.\Generated_Source\PSoC5/PWM.c **** *
   5:.\Generated_Source\PSoC5/PWM.c **** * Description:
   6:.\Generated_Source\PSoC5/PWM.c **** *  The PWM User Module consist of an 8 or 16-bit counter with two 8 or 16-bit
   7:.\Generated_Source\PSoC5/PWM.c **** *  comparitors. Each instance of this user module is capable of generating
   8:.\Generated_Source\PSoC5/PWM.c **** *  two PWM outputs with the same period. The pulse width is selectable between
   9:.\Generated_Source\PSoC5/PWM.c **** *  1 and 255/65535. The period is selectable between 2 and 255/65536 clocks. 
  10:.\Generated_Source\PSoC5/PWM.c **** *  The compare value output may be configured to be active when the present 
  11:.\Generated_Source\PSoC5/PWM.c **** *  counter is less than or less than/equal to the compare value.
  12:.\Generated_Source\PSoC5/PWM.c **** *  A terminal count output is also provided. It generates a pulse one clock
  13:.\Generated_Source\PSoC5/PWM.c **** *  width wide when the counter is equal to zero.
  14:.\Generated_Source\PSoC5/PWM.c **** *
  15:.\Generated_Source\PSoC5/PWM.c **** * Note:
  16:.\Generated_Source\PSoC5/PWM.c **** *
ARM GAS  C:\Users\KEVIN-~1\AppData\Local\Temp\ccMhmRZ8.s 			page 2


  17:.\Generated_Source\PSoC5/PWM.c **** *******************************************************************************
  18:.\Generated_Source\PSoC5/PWM.c **** * Copyright 2008-2012, Cypress Semiconductor Corporation.  All rights reserved.
  19:.\Generated_Source\PSoC5/PWM.c **** * You may use this file only in accordance with the license, terms, conditions, 
  20:.\Generated_Source\PSoC5/PWM.c **** * disclaimers, and limitations in the end user license agreement accompanying 
  21:.\Generated_Source\PSoC5/PWM.c **** * the software package with which this file was provided.
  22:.\Generated_Source\PSoC5/PWM.c **** ********************************************************************************/
  23:.\Generated_Source\PSoC5/PWM.c **** 
  24:.\Generated_Source\PSoC5/PWM.c **** #include "cytypes.h"
  25:.\Generated_Source\PSoC5/PWM.c **** #include "PWM.h"
  26:.\Generated_Source\PSoC5/PWM.c **** 
  27:.\Generated_Source\PSoC5/PWM.c **** uint8 PWM_initVar = 0u;
  28:.\Generated_Source\PSoC5/PWM.c **** 
  29:.\Generated_Source\PSoC5/PWM.c **** 
  30:.\Generated_Source\PSoC5/PWM.c **** /*******************************************************************************
  31:.\Generated_Source\PSoC5/PWM.c **** * Function Name: PWM_Start
  32:.\Generated_Source\PSoC5/PWM.c **** ********************************************************************************
  33:.\Generated_Source\PSoC5/PWM.c **** *
  34:.\Generated_Source\PSoC5/PWM.c **** * Summary:
  35:.\Generated_Source\PSoC5/PWM.c **** *  The start function initializes the pwm with the default values, the 
  36:.\Generated_Source\PSoC5/PWM.c **** *  enables the counter to begin counting.  It does not enable interrupts,
  37:.\Generated_Source\PSoC5/PWM.c **** *  the EnableInt command should be called if interrupt generation is required.
  38:.\Generated_Source\PSoC5/PWM.c **** *
  39:.\Generated_Source\PSoC5/PWM.c **** * Parameters:  
  40:.\Generated_Source\PSoC5/PWM.c **** *  void  
  41:.\Generated_Source\PSoC5/PWM.c **** *
  42:.\Generated_Source\PSoC5/PWM.c **** * Return: 
  43:.\Generated_Source\PSoC5/PWM.c **** *  void
  44:.\Generated_Source\PSoC5/PWM.c **** *
  45:.\Generated_Source\PSoC5/PWM.c **** * Global variables:
  46:.\Generated_Source\PSoC5/PWM.c **** *  PWM_initVar: Is modified when this function is called for the 
  47:.\Generated_Source\PSoC5/PWM.c **** *   first time. Is used to ensure that initialization happens only once.
  48:.\Generated_Source\PSoC5/PWM.c **** *
  49:.\Generated_Source\PSoC5/PWM.c **** *******************************************************************************/
  50:.\Generated_Source\PSoC5/PWM.c **** void PWM_Start(void) 
  51:.\Generated_Source\PSoC5/PWM.c **** {
  38              		.loc 1 51 0
  39              		.cfi_startproc
  40              		@ args = 0, pretend = 0, frame = 0
  41              		@ frame_needed = 1, uses_anonymous_args = 0
  42 0000 80B5     		push	{r7, lr}
  43              	.LCFI0:
  44              		.cfi_def_cfa_offset 8
  45 0002 00AF     		add	r7, sp, #0
  46              		.cfi_offset 14, -4
  47              		.cfi_offset 7, -8
  48              	.LCFI1:
  49              		.cfi_def_cfa_register 7
  52:.\Generated_Source\PSoC5/PWM.c ****     /* If not Initialized then initialize all required hardware and software */
  53:.\Generated_Source\PSoC5/PWM.c ****     if(PWM_initVar == 0u)
  50              		.loc 1 53 0
  51 0004 40F20003 		movw	r3, #:lower16:PWM_initVar
  52 0008 C0F20003 		movt	r3, #:upper16:PWM_initVar
  53 000c 1B78     		ldrb	r3, [r3, #0]	@ zero_extendqisi2
  54 000e 002B     		cmp	r3, #0
  55 0010 08D1     		bne	.L2
  54:.\Generated_Source\PSoC5/PWM.c ****     {
  55:.\Generated_Source\PSoC5/PWM.c ****         PWM_Init();
ARM GAS  C:\Users\KEVIN-~1\AppData\Local\Temp\ccMhmRZ8.s 			page 3


  56              		.loc 1 55 0
  57 0012 FFF7FEFF 		bl	PWM_Init
  56:.\Generated_Source\PSoC5/PWM.c ****         PWM_initVar = 1u;
  58              		.loc 1 56 0
  59 0016 40F20003 		movw	r3, #:lower16:PWM_initVar
  60 001a C0F20003 		movt	r3, #:upper16:PWM_initVar
  61 001e 4FF00102 		mov	r2, #1
  62 0022 1A70     		strb	r2, [r3, #0]
  63              	.L2:
  57:.\Generated_Source\PSoC5/PWM.c ****     }
  58:.\Generated_Source\PSoC5/PWM.c ****     PWM_Enable();
  64              		.loc 1 58 0
  65 0024 FFF7FEFF 		bl	PWM_Enable
  59:.\Generated_Source\PSoC5/PWM.c **** 
  60:.\Generated_Source\PSoC5/PWM.c **** }
  66              		.loc 1 60 0
  67 0028 80BD     		pop	{r7, pc}
  68              		.cfi_endproc
  69              	.LFE0:
  70              		.size	PWM_Start, .-PWM_Start
  71 002a 00BF     		.section	.text.PWM_Init,"ax",%progbits
  72              		.align	2
  73              		.global	PWM_Init
  74              		.thumb
  75              		.thumb_func
  76              		.type	PWM_Init, %function
  77              	PWM_Init:
  78              	.LFB1:
  61:.\Generated_Source\PSoC5/PWM.c **** 
  62:.\Generated_Source\PSoC5/PWM.c **** 
  63:.\Generated_Source\PSoC5/PWM.c **** /*******************************************************************************
  64:.\Generated_Source\PSoC5/PWM.c **** * Function Name: PWM_Init
  65:.\Generated_Source\PSoC5/PWM.c **** ********************************************************************************
  66:.\Generated_Source\PSoC5/PWM.c **** *
  67:.\Generated_Source\PSoC5/PWM.c **** * Summary:
  68:.\Generated_Source\PSoC5/PWM.c **** *  Initialize component's parameters to the parameters set by user in the 
  69:.\Generated_Source\PSoC5/PWM.c **** *  customizer of the component placed onto schematic. Usually called in 
  70:.\Generated_Source\PSoC5/PWM.c **** *  PWM_Start().
  71:.\Generated_Source\PSoC5/PWM.c **** *
  72:.\Generated_Source\PSoC5/PWM.c **** * Parameters:  
  73:.\Generated_Source\PSoC5/PWM.c **** *  void
  74:.\Generated_Source\PSoC5/PWM.c **** *
  75:.\Generated_Source\PSoC5/PWM.c **** * Return: 
  76:.\Generated_Source\PSoC5/PWM.c **** *  void
  77:.\Generated_Source\PSoC5/PWM.c **** *
  78:.\Generated_Source\PSoC5/PWM.c **** *******************************************************************************/
  79:.\Generated_Source\PSoC5/PWM.c **** void PWM_Init(void) 
  80:.\Generated_Source\PSoC5/PWM.c **** {
  79              		.loc 1 80 0
  80              		.cfi_startproc
  81              		@ args = 0, pretend = 0, frame = 8
  82              		@ frame_needed = 1, uses_anonymous_args = 0
  83 0000 80B5     		push	{r7, lr}
  84              	.LCFI2:
  85              		.cfi_def_cfa_offset 8
  86 0002 82B0     		sub	sp, sp, #8
  87              	.LCFI3:
ARM GAS  C:\Users\KEVIN-~1\AppData\Local\Temp\ccMhmRZ8.s 			page 4


  88              		.cfi_def_cfa_offset 16
  89 0004 00AF     		add	r7, sp, #0
  90              		.cfi_offset 14, -4
  91              		.cfi_offset 7, -8
  92              	.LCFI4:
  93              		.cfi_def_cfa_register 7
  81:.\Generated_Source\PSoC5/PWM.c ****     #if (PWM_UsingFixedFunction || PWM_UseControl)
  82:.\Generated_Source\PSoC5/PWM.c ****         uint8 ctrl;
  83:.\Generated_Source\PSoC5/PWM.c ****     #endif /* (PWM_UsingFixedFunction || PWM_UseControl) */
  84:.\Generated_Source\PSoC5/PWM.c ****     
  85:.\Generated_Source\PSoC5/PWM.c ****     #if(!PWM_UsingFixedFunction) 
  86:.\Generated_Source\PSoC5/PWM.c ****         #if(PWM_UseStatus)
  87:.\Generated_Source\PSoC5/PWM.c ****             /* Interrupt State Backup for Critical Region*/
  88:.\Generated_Source\PSoC5/PWM.c ****             uint8 PWM_interruptState;
  89:.\Generated_Source\PSoC5/PWM.c ****         #endif /* (PWM_UseStatus) */
  90:.\Generated_Source\PSoC5/PWM.c ****     #endif /* (!PWM_UsingFixedFunction) */
  91:.\Generated_Source\PSoC5/PWM.c ****     
  92:.\Generated_Source\PSoC5/PWM.c ****     #if (PWM_UsingFixedFunction)
  93:.\Generated_Source\PSoC5/PWM.c ****         /* You are allowed to write the compare value (FF only) */
  94:.\Generated_Source\PSoC5/PWM.c ****         PWM_CONTROL |= PWM_CFG0_MODE;
  95:.\Generated_Source\PSoC5/PWM.c ****         #if (PWM_DeadBand2_4)
  96:.\Generated_Source\PSoC5/PWM.c ****             PWM_CONTROL |= PWM_CFG0_DB;
  97:.\Generated_Source\PSoC5/PWM.c ****         #endif /* (PWM_DeadBand2_4) */
  98:.\Generated_Source\PSoC5/PWM.c ****                 
  99:.\Generated_Source\PSoC5/PWM.c ****         /* Set the default Compare Mode */
 100:.\Generated_Source\PSoC5/PWM.c ****         #if(CY_PSOC5A)
 101:.\Generated_Source\PSoC5/PWM.c ****                 ctrl = PWM_CONTROL2 & ~PWM_CTRL_CMPMODE1_MASK;
 102:.\Generated_Source\PSoC5/PWM.c ****                 PWM_CONTROL2 = ctrl | PWM_DEFAULT_COMPARE1_MODE;
 103:.\Generated_Source\PSoC5/PWM.c ****         #endif /* (CY_PSOC5A) */
 104:.\Generated_Source\PSoC5/PWM.c ****         #if(CY_PSOC3 || CY_PSOC5LP)
 105:.\Generated_Source\PSoC5/PWM.c ****                 ctrl = PWM_CONTROL3 & ~PWM_CTRL_CMPMODE1_MASK;
 106:.\Generated_Source\PSoC5/PWM.c ****                 PWM_CONTROL3 = ctrl | PWM_DEFAULT_COMPARE1_MODE;
 107:.\Generated_Source\PSoC5/PWM.c ****         #endif /* (CY_PSOC3 || CY_PSOC5LP) */
 108:.\Generated_Source\PSoC5/PWM.c ****         
 109:.\Generated_Source\PSoC5/PWM.c ****          /* Clear and Set SYNCTC and SYNCCMP bits of RT1 register */
 110:.\Generated_Source\PSoC5/PWM.c ****         PWM_RT1 &= ~PWM_RT1_MASK;
 111:.\Generated_Source\PSoC5/PWM.c ****         PWM_RT1 |= PWM_SYNC;     
 112:.\Generated_Source\PSoC5/PWM.c ****                 
 113:.\Generated_Source\PSoC5/PWM.c ****         /*Enable DSI Sync all all inputs of the PWM*/
 114:.\Generated_Source\PSoC5/PWM.c ****         PWM_RT1 &= ~(PWM_SYNCDSI_MASK);
 115:.\Generated_Source\PSoC5/PWM.c ****         PWM_RT1 |= PWM_SYNCDSI_EN;
 116:.\Generated_Source\PSoC5/PWM.c ****        
 117:.\Generated_Source\PSoC5/PWM.c ****     #elif (PWM_UseControl)
 118:.\Generated_Source\PSoC5/PWM.c ****         /* Set the default compare mode defined in the parameter */
 119:.\Generated_Source\PSoC5/PWM.c ****         ctrl = PWM_CONTROL & ~PWM_CTRL_CMPMODE2_MASK & ~PWM_CTRL_CMPMODE1_MASK;
  94              		.loc 1 119 0
  95 0006 46F27B43 		movw	r3, #:lower16:1073767547
  96 000a C4F20003 		movt	r3, #:upper16:1073767547
  97 000e 1B78     		ldrb	r3, [r3, #0]
  98 0010 DBB2     		uxtb	r3, r3
  99 0012 23F03F03 		bic	r3, r3, #63
 100 0016 BB71     		strb	r3, [r7, #6]
 120:.\Generated_Source\PSoC5/PWM.c ****         PWM_CONTROL = ctrl | PWM_DEFAULT_COMPARE2_MODE | 
 101              		.loc 1 120 0
 102 0018 46F27B43 		movw	r3, #:lower16:1073767547
 103 001c C4F20003 		movt	r3, #:upper16:1073767547
 104 0020 BA79     		ldrb	r2, [r7, #6]
ARM GAS  C:\Users\KEVIN-~1\AppData\Local\Temp\ccMhmRZ8.s 			page 5


 105 0022 42F00A02 		orr	r2, r2, #10
 106 0026 D2B2     		uxtb	r2, r2
 107 0028 1A70     		strb	r2, [r3, #0]
 121:.\Generated_Source\PSoC5/PWM.c ****                                    PWM_DEFAULT_COMPARE1_MODE;
 122:.\Generated_Source\PSoC5/PWM.c ****     #endif /* (PWM_UsingFixedFunction) */
 123:.\Generated_Source\PSoC5/PWM.c ****         
 124:.\Generated_Source\PSoC5/PWM.c ****     #if (!PWM_UsingFixedFunction)
 125:.\Generated_Source\PSoC5/PWM.c ****         #if (PWM_Resolution == 8)
 126:.\Generated_Source\PSoC5/PWM.c ****             /* Set FIFO 0 to 1 byte register for period*/
 127:.\Generated_Source\PSoC5/PWM.c ****             PWM_AUX_CONTROLDP0 |= (PWM_AUX_CTRL_FIFO0_CLR);
 108              		.loc 1 127 0
 109 002a 46F29B43 		movw	r3, #:lower16:1073767579
 110 002e C4F20003 		movt	r3, #:upper16:1073767579
 111 0032 46F29B42 		movw	r2, #:lower16:1073767579
 112 0036 C4F20002 		movt	r2, #:upper16:1073767579
 113 003a 1278     		ldrb	r2, [r2, #0]
 114 003c D2B2     		uxtb	r2, r2
 115 003e 42F00102 		orr	r2, r2, #1
 116 0042 D2B2     		uxtb	r2, r2
 117 0044 1A70     		strb	r2, [r3, #0]
 128:.\Generated_Source\PSoC5/PWM.c ****         #else /* (PWM_Resolution == 16)*/
 129:.\Generated_Source\PSoC5/PWM.c ****             /* Set FIFO 0 to 1 byte register for period */
 130:.\Generated_Source\PSoC5/PWM.c ****             PWM_AUX_CONTROLDP0 |= (PWM_AUX_CTRL_FIFO0_CLR);
 131:.\Generated_Source\PSoC5/PWM.c ****             PWM_AUX_CONTROLDP1 |= (PWM_AUX_CTRL_FIFO0_CLR);
 132:.\Generated_Source\PSoC5/PWM.c ****         #endif /* (PWM_Resolution == 8) */
 133:.\Generated_Source\PSoC5/PWM.c **** 
 134:.\Generated_Source\PSoC5/PWM.c ****         PWM_WriteCounter(PWM_INIT_PERIOD_VALUE);
 118              		.loc 1 134 0
 119 0046 4FF06400 		mov	r0, #100
 120 004a FFF7FEFF 		bl	PWM_WriteCounter
 135:.\Generated_Source\PSoC5/PWM.c ****     #endif /* (!PWM_UsingFixedFunction) */
 136:.\Generated_Source\PSoC5/PWM.c ****         
 137:.\Generated_Source\PSoC5/PWM.c ****     PWM_WritePeriod(PWM_INIT_PERIOD_VALUE);
 121              		.loc 1 137 0
 122 004e 4FF06400 		mov	r0, #100
 123 0052 FFF7FEFF 		bl	PWM_WritePeriod
 138:.\Generated_Source\PSoC5/PWM.c **** 
 139:.\Generated_Source\PSoC5/PWM.c ****         #if (PWM_UseOneCompareMode)
 140:.\Generated_Source\PSoC5/PWM.c ****             PWM_WriteCompare(PWM_INIT_COMPARE_VALUE1);
 124              		.loc 1 140 0
 125 0056 4FF00A00 		mov	r0, #10
 126 005a FFF7FEFF 		bl	PWM_WriteCompare
 141:.\Generated_Source\PSoC5/PWM.c ****         #else
 142:.\Generated_Source\PSoC5/PWM.c ****             PWM_WriteCompare1(PWM_INIT_COMPARE_VALUE1);
 143:.\Generated_Source\PSoC5/PWM.c ****             PWM_WriteCompare2(PWM_INIT_COMPARE_VALUE2);
 144:.\Generated_Source\PSoC5/PWM.c ****         #endif /* (PWM_UseOneCompareMode) */
 145:.\Generated_Source\PSoC5/PWM.c ****         
 146:.\Generated_Source\PSoC5/PWM.c ****         #if (PWM_KillModeMinTime)
 147:.\Generated_Source\PSoC5/PWM.c ****             PWM_WriteKillTime(PWM_MinimumKillTime);
 148:.\Generated_Source\PSoC5/PWM.c ****         #endif /* (PWM_KillModeMinTime) */
 149:.\Generated_Source\PSoC5/PWM.c ****         
 150:.\Generated_Source\PSoC5/PWM.c ****         #if (PWM_DeadBandUsed)
 151:.\Generated_Source\PSoC5/PWM.c ****             PWM_WriteDeadTime(PWM_INIT_DEAD_TIME);
 152:.\Generated_Source\PSoC5/PWM.c ****         #endif /* (PWM_DeadBandUsed) */
 153:.\Generated_Source\PSoC5/PWM.c **** 
 154:.\Generated_Source\PSoC5/PWM.c ****     #if (PWM_UseStatus || PWM_UsingFixedFunction)
 155:.\Generated_Source\PSoC5/PWM.c ****         PWM_SetInterruptMode(PWM_INIT_INTERRUPTS_MODE);
ARM GAS  C:\Users\KEVIN-~1\AppData\Local\Temp\ccMhmRZ8.s 			page 6


 127              		.loc 1 155 0
 128 005e 46F28B43 		movw	r3, #:lower16:1073767563
 129 0062 C4F20003 		movt	r3, #:upper16:1073767563
 130 0066 4FF00002 		mov	r2, #0
 131 006a 1A70     		strb	r2, [r3, #0]
 156:.\Generated_Source\PSoC5/PWM.c ****     #endif /* (PWM_UseStatus || PWM_UsingFixedFunction) */
 157:.\Generated_Source\PSoC5/PWM.c ****         
 158:.\Generated_Source\PSoC5/PWM.c ****     #if (PWM_UsingFixedFunction)
 159:.\Generated_Source\PSoC5/PWM.c ****         /* Globally Enable the Fixed Function Block chosen */
 160:.\Generated_Source\PSoC5/PWM.c ****         PWM_GLOBAL_ENABLE |= PWM_BLOCK_EN_MASK;
 161:.\Generated_Source\PSoC5/PWM.c ****         /* Set the Interrupt source to come from the status register */
 162:.\Generated_Source\PSoC5/PWM.c ****         PWM_CONTROL2 |= PWM_CTRL2_IRQ_SEL;
 163:.\Generated_Source\PSoC5/PWM.c ****     #else
 164:.\Generated_Source\PSoC5/PWM.c ****         #if(PWM_UseStatus)
 165:.\Generated_Source\PSoC5/PWM.c ****             
 166:.\Generated_Source\PSoC5/PWM.c ****             /* CyEnterCriticalRegion and CyExitCriticalRegion are used to mark following region cri
 167:.\Generated_Source\PSoC5/PWM.c ****             /* Enter Critical Region*/
 168:.\Generated_Source\PSoC5/PWM.c ****             PWM_interruptState = CyEnterCriticalSection();
 132              		.loc 1 168 0
 133 006c FFF7FEFF 		bl	CyEnterCriticalSection
 134 0070 0346     		mov	r3, r0
 135 0072 FB71     		strb	r3, [r7, #7]
 169:.\Generated_Source\PSoC5/PWM.c ****             /* Use the interrupt output of the status register for IRQ output */
 170:.\Generated_Source\PSoC5/PWM.c ****             PWM_STATUS_AUX_CTRL |= PWM_STATUS_ACTL_INT_EN_MASK;
 136              		.loc 1 170 0
 137 0074 46F29B43 		movw	r3, #:lower16:1073767579
 138 0078 C4F20003 		movt	r3, #:upper16:1073767579
 139 007c 46F29B42 		movw	r2, #:lower16:1073767579
 140 0080 C4F20002 		movt	r2, #:upper16:1073767579
 141 0084 1278     		ldrb	r2, [r2, #0]
 142 0086 D2B2     		uxtb	r2, r2
 143 0088 42F01002 		orr	r2, r2, #16
 144 008c D2B2     		uxtb	r2, r2
 145 008e 1A70     		strb	r2, [r3, #0]
 171:.\Generated_Source\PSoC5/PWM.c ****             
 172:.\Generated_Source\PSoC5/PWM.c ****              /* Exit Critical Region*/
 173:.\Generated_Source\PSoC5/PWM.c ****             CyExitCriticalSection(PWM_interruptState);
 146              		.loc 1 173 0
 147 0090 FB79     		ldrb	r3, [r7, #7]	@ zero_extendqisi2
 148 0092 1846     		mov	r0, r3
 149 0094 FFF7FEFF 		bl	CyExitCriticalSection
 174:.\Generated_Source\PSoC5/PWM.c ****             
 175:.\Generated_Source\PSoC5/PWM.c ****             /* Clear the FIFO to enable the PWM_STATUS_FIFOFULL
 176:.\Generated_Source\PSoC5/PWM.c ****                    bit to be set on FIFO full. */
 177:.\Generated_Source\PSoC5/PWM.c ****             PWM_ClearFIFO();
 150              		.loc 1 177 0
 151 0098 FFF7FEFF 		bl	PWM_ClearFIFO
 178:.\Generated_Source\PSoC5/PWM.c ****         #endif /* (PWM_UseStatus) */
 179:.\Generated_Source\PSoC5/PWM.c ****     #endif /* (PWM_UsingFixedFunction) */
 180:.\Generated_Source\PSoC5/PWM.c **** }
 152              		.loc 1 180 0
 153 009c 07F10807 		add	r7, r7, #8
 154 00a0 BD46     		mov	sp, r7
 155 00a2 80BD     		pop	{r7, pc}
 156              		.cfi_endproc
 157              	.LFE1:
 158              		.size	PWM_Init, .-PWM_Init
ARM GAS  C:\Users\KEVIN-~1\AppData\Local\Temp\ccMhmRZ8.s 			page 7


 159              		.section	.text.PWM_Enable,"ax",%progbits
 160              		.align	2
 161              		.global	PWM_Enable
 162              		.thumb
 163              		.thumb_func
 164              		.type	PWM_Enable, %function
 165              	PWM_Enable:
 166              	.LFB2:
 181:.\Generated_Source\PSoC5/PWM.c **** 
 182:.\Generated_Source\PSoC5/PWM.c **** 
 183:.\Generated_Source\PSoC5/PWM.c **** /*******************************************************************************
 184:.\Generated_Source\PSoC5/PWM.c **** * Function Name: PWM_Enable
 185:.\Generated_Source\PSoC5/PWM.c **** ********************************************************************************
 186:.\Generated_Source\PSoC5/PWM.c **** *
 187:.\Generated_Source\PSoC5/PWM.c **** * Summary: 
 188:.\Generated_Source\PSoC5/PWM.c **** *  Enables the PWM block operation
 189:.\Generated_Source\PSoC5/PWM.c **** *
 190:.\Generated_Source\PSoC5/PWM.c **** * Parameters:  
 191:.\Generated_Source\PSoC5/PWM.c **** *  void
 192:.\Generated_Source\PSoC5/PWM.c **** *
 193:.\Generated_Source\PSoC5/PWM.c **** * Return: 
 194:.\Generated_Source\PSoC5/PWM.c **** *  void
 195:.\Generated_Source\PSoC5/PWM.c **** *
 196:.\Generated_Source\PSoC5/PWM.c **** * Side Effects: 
 197:.\Generated_Source\PSoC5/PWM.c **** *  This works only if software enable mode is chosen
 198:.\Generated_Source\PSoC5/PWM.c **** *
 199:.\Generated_Source\PSoC5/PWM.c **** *******************************************************************************/
 200:.\Generated_Source\PSoC5/PWM.c **** void PWM_Enable(void) 
 201:.\Generated_Source\PSoC5/PWM.c **** {
 167              		.loc 1 201 0
 168              		.cfi_startproc
 169              		@ args = 0, pretend = 0, frame = 0
 170              		@ frame_needed = 1, uses_anonymous_args = 0
 171              		@ link register save eliminated.
 172 0000 80B4     		push	{r7}
 173              	.LCFI5:
 174              		.cfi_def_cfa_offset 4
 175 0002 00AF     		add	r7, sp, #0
 176              		.cfi_offset 7, -4
 177              	.LCFI6:
 178              		.cfi_def_cfa_register 7
 202:.\Generated_Source\PSoC5/PWM.c ****     /* Globally Enable the Fixed Function Block chosen */
 203:.\Generated_Source\PSoC5/PWM.c ****     #if (PWM_UsingFixedFunction)
 204:.\Generated_Source\PSoC5/PWM.c ****         PWM_GLOBAL_ENABLE |= PWM_BLOCK_EN_MASK;
 205:.\Generated_Source\PSoC5/PWM.c ****         PWM_GLOBAL_STBY_ENABLE |= PWM_BLOCK_STBY_EN_MASK;
 206:.\Generated_Source\PSoC5/PWM.c ****     #endif /* (PWM_UsingFixedFunction) */
 207:.\Generated_Source\PSoC5/PWM.c ****     
 208:.\Generated_Source\PSoC5/PWM.c ****     /* Enable the PWM from the control register  */
 209:.\Generated_Source\PSoC5/PWM.c ****     #if (PWM_UseControl || PWM_UsingFixedFunction)
 210:.\Generated_Source\PSoC5/PWM.c ****         PWM_CONTROL |= PWM_CTRL_ENABLE;
 179              		.loc 1 210 0
 180 0004 46F27B43 		movw	r3, #:lower16:1073767547
 181 0008 C4F20003 		movt	r3, #:upper16:1073767547
 182 000c 46F27B42 		movw	r2, #:lower16:1073767547
 183 0010 C4F20002 		movt	r2, #:upper16:1073767547
 184 0014 1278     		ldrb	r2, [r2, #0]
 185 0016 D2B2     		uxtb	r2, r2
ARM GAS  C:\Users\KEVIN-~1\AppData\Local\Temp\ccMhmRZ8.s 			page 8


 186 0018 6FEA4262 		mvn	r2, r2, lsl #25
 187 001c 6FEA5262 		mvn	r2, r2, lsr #25
 188 0020 D2B2     		uxtb	r2, r2
 189 0022 1A70     		strb	r2, [r3, #0]
 211:.\Generated_Source\PSoC5/PWM.c ****     #endif /* (PWM_UseControl || PWM_UsingFixedFunction) */
 212:.\Generated_Source\PSoC5/PWM.c **** }
 190              		.loc 1 212 0
 191 0024 BD46     		mov	sp, r7
 192 0026 80BC     		pop	{r7}
 193 0028 7047     		bx	lr
 194              		.cfi_endproc
 195              	.LFE2:
 196              		.size	PWM_Enable, .-PWM_Enable
 197 002a 00BF     		.section	.text.PWM_Stop,"ax",%progbits
 198              		.align	2
 199              		.global	PWM_Stop
 200              		.thumb
 201              		.thumb_func
 202              		.type	PWM_Stop, %function
 203              	PWM_Stop:
 204              	.LFB3:
 213:.\Generated_Source\PSoC5/PWM.c **** 
 214:.\Generated_Source\PSoC5/PWM.c **** 
 215:.\Generated_Source\PSoC5/PWM.c **** /*******************************************************************************
 216:.\Generated_Source\PSoC5/PWM.c **** * Function Name: PWM_Stop
 217:.\Generated_Source\PSoC5/PWM.c **** ********************************************************************************
 218:.\Generated_Source\PSoC5/PWM.c **** *
 219:.\Generated_Source\PSoC5/PWM.c **** * Summary:
 220:.\Generated_Source\PSoC5/PWM.c **** *  The stop function halts the PWM, but does not change any modes or disable
 221:.\Generated_Source\PSoC5/PWM.c **** *  interrupts.
 222:.\Generated_Source\PSoC5/PWM.c **** *
 223:.\Generated_Source\PSoC5/PWM.c **** * Parameters:  
 224:.\Generated_Source\PSoC5/PWM.c **** *  void  
 225:.\Generated_Source\PSoC5/PWM.c **** *
 226:.\Generated_Source\PSoC5/PWM.c **** * Return: 
 227:.\Generated_Source\PSoC5/PWM.c **** *  void
 228:.\Generated_Source\PSoC5/PWM.c **** *
 229:.\Generated_Source\PSoC5/PWM.c **** * Side Effects:
 230:.\Generated_Source\PSoC5/PWM.c **** *  If the Enable mode is set to Hardware only then this function
 231:.\Generated_Source\PSoC5/PWM.c **** *  has no effect on the operation of the PWM
 232:.\Generated_Source\PSoC5/PWM.c **** *
 233:.\Generated_Source\PSoC5/PWM.c **** *******************************************************************************/
 234:.\Generated_Source\PSoC5/PWM.c **** void PWM_Stop(void) 
 235:.\Generated_Source\PSoC5/PWM.c **** {
 205              		.loc 1 235 0
 206              		.cfi_startproc
 207              		@ args = 0, pretend = 0, frame = 0
 208              		@ frame_needed = 1, uses_anonymous_args = 0
 209              		@ link register save eliminated.
 210 0000 80B4     		push	{r7}
 211              	.LCFI7:
 212              		.cfi_def_cfa_offset 4
 213 0002 00AF     		add	r7, sp, #0
 214              		.cfi_offset 7, -4
 215              	.LCFI8:
 216              		.cfi_def_cfa_register 7
 236:.\Generated_Source\PSoC5/PWM.c ****     #if (PWM_UseControl || PWM_UsingFixedFunction)
ARM GAS  C:\Users\KEVIN-~1\AppData\Local\Temp\ccMhmRZ8.s 			page 9


 237:.\Generated_Source\PSoC5/PWM.c ****         PWM_CONTROL &= ~PWM_CTRL_ENABLE;
 217              		.loc 1 237 0
 218 0004 46F27B43 		movw	r3, #:lower16:1073767547
 219 0008 C4F20003 		movt	r3, #:upper16:1073767547
 220 000c 46F27B42 		movw	r2, #:lower16:1073767547
 221 0010 C4F20002 		movt	r2, #:upper16:1073767547
 222 0014 1278     		ldrb	r2, [r2, #0]
 223 0016 D2B2     		uxtb	r2, r2
 224 0018 02F07F02 		and	r2, r2, #127
 225 001c 1A70     		strb	r2, [r3, #0]
 238:.\Generated_Source\PSoC5/PWM.c ****     #endif /* (PWM_UseControl || PWM_UsingFixedFunction) */
 239:.\Generated_Source\PSoC5/PWM.c ****     
 240:.\Generated_Source\PSoC5/PWM.c ****     /* Globally disable the Fixed Function Block chosen */
 241:.\Generated_Source\PSoC5/PWM.c ****     #if (PWM_UsingFixedFunction)
 242:.\Generated_Source\PSoC5/PWM.c ****         PWM_GLOBAL_ENABLE &= ~PWM_BLOCK_EN_MASK;
 243:.\Generated_Source\PSoC5/PWM.c ****         PWM_GLOBAL_STBY_ENABLE &= ~PWM_BLOCK_STBY_EN_MASK;
 244:.\Generated_Source\PSoC5/PWM.c ****     #endif /* (PWM_UsingFixedFunction) */
 245:.\Generated_Source\PSoC5/PWM.c **** }
 226              		.loc 1 245 0
 227 001e BD46     		mov	sp, r7
 228 0020 80BC     		pop	{r7}
 229 0022 7047     		bx	lr
 230              		.cfi_endproc
 231              	.LFE3:
 232              		.size	PWM_Stop, .-PWM_Stop
 233              		.section	.text.PWM_WriteCounter,"ax",%progbits
 234              		.align	2
 235              		.global	PWM_WriteCounter
 236              		.thumb
 237              		.thumb_func
 238              		.type	PWM_WriteCounter, %function
 239              	PWM_WriteCounter:
 240              	.LFB4:
 246:.\Generated_Source\PSoC5/PWM.c **** 
 247:.\Generated_Source\PSoC5/PWM.c **** 
 248:.\Generated_Source\PSoC5/PWM.c **** #if (PWM_UseOneCompareMode)
 249:.\Generated_Source\PSoC5/PWM.c **** #if (PWM_CompareMode1SW)
 250:.\Generated_Source\PSoC5/PWM.c **** 
 251:.\Generated_Source\PSoC5/PWM.c **** 
 252:.\Generated_Source\PSoC5/PWM.c **** /*******************************************************************************
 253:.\Generated_Source\PSoC5/PWM.c **** * Function Name: PWM_SetCompareMode
 254:.\Generated_Source\PSoC5/PWM.c **** ********************************************************************************
 255:.\Generated_Source\PSoC5/PWM.c **** * 
 256:.\Generated_Source\PSoC5/PWM.c **** * Summary:
 257:.\Generated_Source\PSoC5/PWM.c **** *  This function writes the Compare Mode for the pwm output when in Dither mode,
 258:.\Generated_Source\PSoC5/PWM.c **** *  Center Align Mode or One Output Mode.
 259:.\Generated_Source\PSoC5/PWM.c **** *
 260:.\Generated_Source\PSoC5/PWM.c **** * Parameters:
 261:.\Generated_Source\PSoC5/PWM.c **** *  comparemode:  The new compare mode for the PWM output. Use the compare types
 262:.\Generated_Source\PSoC5/PWM.c **** *                defined in the H file as input arguments.
 263:.\Generated_Source\PSoC5/PWM.c **** *
 264:.\Generated_Source\PSoC5/PWM.c **** * Return:
 265:.\Generated_Source\PSoC5/PWM.c **** *  void
 266:.\Generated_Source\PSoC5/PWM.c **** *
 267:.\Generated_Source\PSoC5/PWM.c **** *******************************************************************************/
 268:.\Generated_Source\PSoC5/PWM.c **** void PWM_SetCompareMode(uint8 comparemode) 
 269:.\Generated_Source\PSoC5/PWM.c **** {
ARM GAS  C:\Users\KEVIN-~1\AppData\Local\Temp\ccMhmRZ8.s 			page 10


 270:.\Generated_Source\PSoC5/PWM.c ****     #if(PWM_UsingFixedFunction)
 271:.\Generated_Source\PSoC5/PWM.c ****         #if(CY_PSOC5A)
 272:.\Generated_Source\PSoC5/PWM.c ****             uint8 comparemodemasked = (comparemode << PWM_CTRL_CMPMODE1_SHIFT);
 273:.\Generated_Source\PSoC5/PWM.c ****             PWM_CONTROL2 &= ~PWM_CTRL_CMPMODE1_MASK; /*Clear Existing Data */
 274:.\Generated_Source\PSoC5/PWM.c ****             PWM_CONTROL2 |= comparemodemasked;  
 275:.\Generated_Source\PSoC5/PWM.c ****         #endif /* (CY_PSOC5A) */
 276:.\Generated_Source\PSoC5/PWM.c ****                 
 277:.\Generated_Source\PSoC5/PWM.c ****         #if(CY_PSOC3 || CY_PSOC5LP)
 278:.\Generated_Source\PSoC5/PWM.c ****             uint8 comparemodemasked = (comparemode << PWM_CTRL_CMPMODE1_SHIFT);
 279:.\Generated_Source\PSoC5/PWM.c ****             PWM_CONTROL3 &= ~PWM_CTRL_CMPMODE1_MASK; /*Clear Existing Data */
 280:.\Generated_Source\PSoC5/PWM.c ****             PWM_CONTROL3 |= comparemodemasked;     
 281:.\Generated_Source\PSoC5/PWM.c ****         #endif /* (CY_PSOC3 || CY_PSOC5LP) */
 282:.\Generated_Source\PSoC5/PWM.c ****                 
 283:.\Generated_Source\PSoC5/PWM.c ****     #elif (PWM_UseControl)
 284:.\Generated_Source\PSoC5/PWM.c ****         uint8 comparemode1masked = (comparemode << PWM_CTRL_CMPMODE1_SHIFT) & 
 285:.\Generated_Source\PSoC5/PWM.c ****                                     PWM_CTRL_CMPMODE1_MASK;
 286:.\Generated_Source\PSoC5/PWM.c ****         uint8 comparemode2masked = (comparemode << PWM_CTRL_CMPMODE2_SHIFT) & 
 287:.\Generated_Source\PSoC5/PWM.c ****                                    PWM_CTRL_CMPMODE2_MASK;
 288:.\Generated_Source\PSoC5/PWM.c ****         /*Clear existing mode */
 289:.\Generated_Source\PSoC5/PWM.c ****         PWM_CONTROL &= ~(PWM_CTRL_CMPMODE1_MASK | PWM_CTRL_CMPMODE2_MASK); 
 290:.\Generated_Source\PSoC5/PWM.c ****         PWM_CONTROL |= (comparemode1masked | comparemode2masked);
 291:.\Generated_Source\PSoC5/PWM.c ****         
 292:.\Generated_Source\PSoC5/PWM.c ****     #else
 293:.\Generated_Source\PSoC5/PWM.c ****         uint8 temp = comparemode;
 294:.\Generated_Source\PSoC5/PWM.c ****     #endif /* (PWM_UsingFixedFunction) */
 295:.\Generated_Source\PSoC5/PWM.c **** }
 296:.\Generated_Source\PSoC5/PWM.c **** #endif /* PWM_CompareMode1SW */
 297:.\Generated_Source\PSoC5/PWM.c **** 
 298:.\Generated_Source\PSoC5/PWM.c **** #else /* UseOneCompareMode */
 299:.\Generated_Source\PSoC5/PWM.c **** 
 300:.\Generated_Source\PSoC5/PWM.c **** 
 301:.\Generated_Source\PSoC5/PWM.c **** #if (PWM_CompareMode1SW)
 302:.\Generated_Source\PSoC5/PWM.c **** 
 303:.\Generated_Source\PSoC5/PWM.c **** 
 304:.\Generated_Source\PSoC5/PWM.c **** /*******************************************************************************
 305:.\Generated_Source\PSoC5/PWM.c **** * Function Name: PWM_SetCompareMode1
 306:.\Generated_Source\PSoC5/PWM.c **** ********************************************************************************
 307:.\Generated_Source\PSoC5/PWM.c **** * 
 308:.\Generated_Source\PSoC5/PWM.c **** * Summary:
 309:.\Generated_Source\PSoC5/PWM.c **** *  This function writes the Compare Mode for the pwm or pwm1 output
 310:.\Generated_Source\PSoC5/PWM.c **** *
 311:.\Generated_Source\PSoC5/PWM.c **** * Parameters:  
 312:.\Generated_Source\PSoC5/PWM.c **** *  comparemode:  The new compare mode for the PWM output. Use the compare types
 313:.\Generated_Source\PSoC5/PWM.c **** *                defined in the H file as input arguments.
 314:.\Generated_Source\PSoC5/PWM.c **** *
 315:.\Generated_Source\PSoC5/PWM.c **** * Return: 
 316:.\Generated_Source\PSoC5/PWM.c **** *  void
 317:.\Generated_Source\PSoC5/PWM.c **** *
 318:.\Generated_Source\PSoC5/PWM.c **** *******************************************************************************/
 319:.\Generated_Source\PSoC5/PWM.c **** void PWM_SetCompareMode1(uint8 comparemode) 
 320:.\Generated_Source\PSoC5/PWM.c **** {
 321:.\Generated_Source\PSoC5/PWM.c ****     uint8 comparemodemasked = (comparemode << PWM_CTRL_CMPMODE1_SHIFT) & 
 322:.\Generated_Source\PSoC5/PWM.c ****                                PWM_CTRL_CMPMODE1_MASK;
 323:.\Generated_Source\PSoC5/PWM.c ****     #if(PWM_UsingFixedFunction)
 324:.\Generated_Source\PSoC5/PWM.c ****         #if(CY_PSOC5A)
 325:.\Generated_Source\PSoC5/PWM.c ****             PWM_CONTROL2 &= PWM_CTRL_CMPMODE1_MASK; /*Clear existing mode */
 326:.\Generated_Source\PSoC5/PWM.c ****             PWM_CONTROL2 |= comparemodemasked; 
ARM GAS  C:\Users\KEVIN-~1\AppData\Local\Temp\ccMhmRZ8.s 			page 11


 327:.\Generated_Source\PSoC5/PWM.c ****         #endif /* (CY_PSOC5A) */
 328:.\Generated_Source\PSoC5/PWM.c ****                 
 329:.\Generated_Source\PSoC5/PWM.c ****         #if(CY_PSOC3 || CY_PSOC5LP)
 330:.\Generated_Source\PSoC5/PWM.c ****             PWM_CONTROL3 &= PWM_CTRL_CMPMODE1_MASK; /*Clear existing mode */
 331:.\Generated_Source\PSoC5/PWM.c ****             PWM_CONTROL3 |= comparemodemasked; 
 332:.\Generated_Source\PSoC5/PWM.c ****         #endif /* (CY_PSOC3 || CY_PSOC5LP) */
 333:.\Generated_Source\PSoC5/PWM.c ****                 
 334:.\Generated_Source\PSoC5/PWM.c ****     #elif (PWM_UseControl)
 335:.\Generated_Source\PSoC5/PWM.c ****         PWM_CONTROL &= PWM_CTRL_CMPMODE1_MASK; /*Clear existing mode */
 336:.\Generated_Source\PSoC5/PWM.c ****         PWM_CONTROL |= comparemodemasked;
 337:.\Generated_Source\PSoC5/PWM.c ****     #endif    /* (PWM_UsingFixedFunction) */
 338:.\Generated_Source\PSoC5/PWM.c **** }
 339:.\Generated_Source\PSoC5/PWM.c **** #endif /* PWM_CompareMode1SW */
 340:.\Generated_Source\PSoC5/PWM.c **** 
 341:.\Generated_Source\PSoC5/PWM.c **** 
 342:.\Generated_Source\PSoC5/PWM.c **** #if (PWM_CompareMode2SW)
 343:.\Generated_Source\PSoC5/PWM.c **** 
 344:.\Generated_Source\PSoC5/PWM.c **** 
 345:.\Generated_Source\PSoC5/PWM.c **** /*******************************************************************************
 346:.\Generated_Source\PSoC5/PWM.c **** * Function Name: PWM_SetCompareMode2
 347:.\Generated_Source\PSoC5/PWM.c **** ********************************************************************************
 348:.\Generated_Source\PSoC5/PWM.c **** * 
 349:.\Generated_Source\PSoC5/PWM.c **** * Summary:
 350:.\Generated_Source\PSoC5/PWM.c **** *  This function writes the Compare Mode for the pwm or pwm2 output
 351:.\Generated_Source\PSoC5/PWM.c **** *
 352:.\Generated_Source\PSoC5/PWM.c **** * Parameters:  
 353:.\Generated_Source\PSoC5/PWM.c **** *  comparemode:  The new compare mode for the PWM output. Use the compare types
 354:.\Generated_Source\PSoC5/PWM.c **** *                defined in the H file as input arguments.
 355:.\Generated_Source\PSoC5/PWM.c **** *
 356:.\Generated_Source\PSoC5/PWM.c **** * Return: 
 357:.\Generated_Source\PSoC5/PWM.c **** *  void
 358:.\Generated_Source\PSoC5/PWM.c **** *
 359:.\Generated_Source\PSoC5/PWM.c **** *******************************************************************************/
 360:.\Generated_Source\PSoC5/PWM.c **** void PWM_SetCompareMode2(uint8 comparemode) 
 361:.\Generated_Source\PSoC5/PWM.c **** {
 362:.\Generated_Source\PSoC5/PWM.c ****     #if(PWM_UsingFixedFunction)
 363:.\Generated_Source\PSoC5/PWM.c ****         /* Do Nothing because there is no second Compare Mode Register in FF block */ 
 364:.\Generated_Source\PSoC5/PWM.c ****     #elif (PWM_UseControl)
 365:.\Generated_Source\PSoC5/PWM.c ****         uint8 comparemodemasked = (comparemode << PWM_CTRL_CMPMODE2_SHIFT) & 
 366:.\Generated_Source\PSoC5/PWM.c ****                                              PWM_CTRL_CMPMODE2_MASK;
 367:.\Generated_Source\PSoC5/PWM.c ****         PWM_CONTROL &= PWM_CTRL_CMPMODE2_MASK; /*Clear existing mode */
 368:.\Generated_Source\PSoC5/PWM.c ****         PWM_CONTROL |= comparemodemasked;
 369:.\Generated_Source\PSoC5/PWM.c ****     #endif /* (PWM_UsingFixedFunction) */
 370:.\Generated_Source\PSoC5/PWM.c **** }
 371:.\Generated_Source\PSoC5/PWM.c **** #endif /*PWM_CompareMode2SW */
 372:.\Generated_Source\PSoC5/PWM.c **** #endif /* UseOneCompareMode */
 373:.\Generated_Source\PSoC5/PWM.c **** 
 374:.\Generated_Source\PSoC5/PWM.c **** 
 375:.\Generated_Source\PSoC5/PWM.c **** #if (!PWM_UsingFixedFunction)
 376:.\Generated_Source\PSoC5/PWM.c **** 
 377:.\Generated_Source\PSoC5/PWM.c **** 
 378:.\Generated_Source\PSoC5/PWM.c **** /*******************************************************************************
 379:.\Generated_Source\PSoC5/PWM.c **** * Function Name: PWM_WriteCounter
 380:.\Generated_Source\PSoC5/PWM.c **** ********************************************************************************
 381:.\Generated_Source\PSoC5/PWM.c **** * 
 382:.\Generated_Source\PSoC5/PWM.c **** * Summary:
 383:.\Generated_Source\PSoC5/PWM.c **** *  This function is used to change the counter value.
ARM GAS  C:\Users\KEVIN-~1\AppData\Local\Temp\ccMhmRZ8.s 			page 12


 384:.\Generated_Source\PSoC5/PWM.c **** *
 385:.\Generated_Source\PSoC5/PWM.c **** * Parameters:  
 386:.\Generated_Source\PSoC5/PWM.c **** *  counter:  This value may be between 1 and (2^Resolution)-1.   
 387:.\Generated_Source\PSoC5/PWM.c **** *
 388:.\Generated_Source\PSoC5/PWM.c **** * Return: 
 389:.\Generated_Source\PSoC5/PWM.c **** *  void
 390:.\Generated_Source\PSoC5/PWM.c **** *
 391:.\Generated_Source\PSoC5/PWM.c **** *******************************************************************************/
 392:.\Generated_Source\PSoC5/PWM.c **** void PWM_WriteCounter(uint8 counter) \
 393:.\Generated_Source\PSoC5/PWM.c ****                                    
 394:.\Generated_Source\PSoC5/PWM.c **** {
 241              		.loc 1 394 0
 242              		.cfi_startproc
 243              		@ args = 0, pretend = 0, frame = 8
 244              		@ frame_needed = 1, uses_anonymous_args = 0
 245              		@ link register save eliminated.
 246 0000 80B4     		push	{r7}
 247              	.LCFI9:
 248              		.cfi_def_cfa_offset 4
 249 0002 83B0     		sub	sp, sp, #12
 250              	.LCFI10:
 251              		.cfi_def_cfa_offset 16
 252 0004 00AF     		add	r7, sp, #0
 253              		.cfi_offset 7, -4
 254              	.LCFI11:
 255              		.cfi_def_cfa_register 7
 256 0006 0346     		mov	r3, r0
 257 0008 FB71     		strb	r3, [r7, #7]
 395:.\Generated_Source\PSoC5/PWM.c ****     CY_SET_REG8(PWM_COUNTER_LSB_PTR, counter);
 258              		.loc 1 395 0
 259 000a 46F20B43 		movw	r3, #:lower16:1073767435
 260 000e C4F20003 		movt	r3, #:upper16:1073767435
 261 0012 FA79     		ldrb	r2, [r7, #7]
 262 0014 1A70     		strb	r2, [r3, #0]
 396:.\Generated_Source\PSoC5/PWM.c **** }
 263              		.loc 1 396 0
 264 0016 07F10C07 		add	r7, r7, #12
 265 001a BD46     		mov	sp, r7
 266 001c 80BC     		pop	{r7}
 267 001e 7047     		bx	lr
 268              		.cfi_endproc
 269              	.LFE4:
 270              		.size	PWM_WriteCounter, .-PWM_WriteCounter
 271              		.section	.text.PWM_ReadCounter,"ax",%progbits
 272              		.align	2
 273              		.global	PWM_ReadCounter
 274              		.thumb
 275              		.thumb_func
 276              		.type	PWM_ReadCounter, %function
 277              	PWM_ReadCounter:
 278              	.LFB5:
 397:.\Generated_Source\PSoC5/PWM.c **** 
 398:.\Generated_Source\PSoC5/PWM.c **** /*******************************************************************************
 399:.\Generated_Source\PSoC5/PWM.c **** * Function Name: PWM_ReadCounter
 400:.\Generated_Source\PSoC5/PWM.c **** ********************************************************************************
 401:.\Generated_Source\PSoC5/PWM.c **** * 
 402:.\Generated_Source\PSoC5/PWM.c **** * Summary:
ARM GAS  C:\Users\KEVIN-~1\AppData\Local\Temp\ccMhmRZ8.s 			page 13


 403:.\Generated_Source\PSoC5/PWM.c **** *  This function returns the current value of the counter.  It doesn't matter
 404:.\Generated_Source\PSoC5/PWM.c **** *  if the counter is enabled or running.
 405:.\Generated_Source\PSoC5/PWM.c **** *
 406:.\Generated_Source\PSoC5/PWM.c **** * Parameters:  
 407:.\Generated_Source\PSoC5/PWM.c **** *  void  
 408:.\Generated_Source\PSoC5/PWM.c **** *
 409:.\Generated_Source\PSoC5/PWM.c **** * Return: 
 410:.\Generated_Source\PSoC5/PWM.c **** *  The current value of the counter.
 411:.\Generated_Source\PSoC5/PWM.c **** *
 412:.\Generated_Source\PSoC5/PWM.c **** *******************************************************************************/
 413:.\Generated_Source\PSoC5/PWM.c **** uint8 PWM_ReadCounter(void) 
 414:.\Generated_Source\PSoC5/PWM.c **** {
 279              		.loc 1 414 0
 280              		.cfi_startproc
 281              		@ args = 0, pretend = 0, frame = 0
 282              		@ frame_needed = 1, uses_anonymous_args = 0
 283              		@ link register save eliminated.
 284 0000 80B4     		push	{r7}
 285              	.LCFI12:
 286              		.cfi_def_cfa_offset 4
 287 0002 00AF     		add	r7, sp, #0
 288              		.cfi_offset 7, -4
 289              	.LCFI13:
 290              		.cfi_def_cfa_register 7
 415:.\Generated_Source\PSoC5/PWM.c ****     /* Force capture by reading Accumulator */
 416:.\Generated_Source\PSoC5/PWM.c ****     /* Must first do a software capture to be able to read the counter */
 417:.\Generated_Source\PSoC5/PWM.c ****     /* It is up to the user code to make sure there isn't already captured data in the FIFO */
 418:.\Generated_Source\PSoC5/PWM.c ****     CY_GET_REG8(PWM_COUNTERCAP_LSB_PTR);
 291              		.loc 1 418 0
 292 0004 46F21B43 		movw	r3, #:lower16:1073767451
 293 0008 C4F20003 		movt	r3, #:upper16:1073767451
 294 000c 1B78     		ldrb	r3, [r3, #0]
 419:.\Generated_Source\PSoC5/PWM.c ****     
 420:.\Generated_Source\PSoC5/PWM.c ****     /* Read the data from the FIFO (or capture register for Fixed Function)*/
 421:.\Generated_Source\PSoC5/PWM.c ****     return (CY_GET_REG8(PWM_CAPTURE_LSB_PTR));
 295              		.loc 1 421 0
 296 000e 46F25B43 		movw	r3, #:lower16:1073767515
 297 0012 C4F20003 		movt	r3, #:upper16:1073767515
 298 0016 1B78     		ldrb	r3, [r3, #0]
 299 0018 DBB2     		uxtb	r3, r3
 422:.\Generated_Source\PSoC5/PWM.c **** }
 300              		.loc 1 422 0
 301 001a 1846     		mov	r0, r3
 302 001c BD46     		mov	sp, r7
 303 001e 80BC     		pop	{r7}
 304 0020 7047     		bx	lr
 305              		.cfi_endproc
 306              	.LFE5:
 307              		.size	PWM_ReadCounter, .-PWM_ReadCounter
 308 0022 00BF     		.section	.text.PWM_ClearFIFO,"ax",%progbits
 309              		.align	2
 310              		.global	PWM_ClearFIFO
 311              		.thumb
 312              		.thumb_func
 313              		.type	PWM_ClearFIFO, %function
 314              	PWM_ClearFIFO:
 315              	.LFB6:
ARM GAS  C:\Users\KEVIN-~1\AppData\Local\Temp\ccMhmRZ8.s 			page 14


 423:.\Generated_Source\PSoC5/PWM.c **** 
 424:.\Generated_Source\PSoC5/PWM.c **** 
 425:.\Generated_Source\PSoC5/PWM.c **** #if (PWM_UseStatus)
 426:.\Generated_Source\PSoC5/PWM.c **** 
 427:.\Generated_Source\PSoC5/PWM.c **** 
 428:.\Generated_Source\PSoC5/PWM.c **** /*******************************************************************************
 429:.\Generated_Source\PSoC5/PWM.c **** * Function Name: PWM_ClearFIFO
 430:.\Generated_Source\PSoC5/PWM.c **** ********************************************************************************
 431:.\Generated_Source\PSoC5/PWM.c **** * 
 432:.\Generated_Source\PSoC5/PWM.c **** * Summary:
 433:.\Generated_Source\PSoC5/PWM.c **** *  This function clears all capture data from the capture FIFO
 434:.\Generated_Source\PSoC5/PWM.c **** *
 435:.\Generated_Source\PSoC5/PWM.c **** * Parameters:  
 436:.\Generated_Source\PSoC5/PWM.c **** *  void
 437:.\Generated_Source\PSoC5/PWM.c **** *
 438:.\Generated_Source\PSoC5/PWM.c **** * Return: 
 439:.\Generated_Source\PSoC5/PWM.c **** *  void
 440:.\Generated_Source\PSoC5/PWM.c **** *
 441:.\Generated_Source\PSoC5/PWM.c **** *******************************************************************************/
 442:.\Generated_Source\PSoC5/PWM.c **** void PWM_ClearFIFO(void) 
 443:.\Generated_Source\PSoC5/PWM.c **** {
 316              		.loc 1 443 0
 317              		.cfi_startproc
 318              		@ args = 0, pretend = 0, frame = 0
 319              		@ frame_needed = 1, uses_anonymous_args = 0
 320              		@ link register save eliminated.
 321 0000 80B4     		push	{r7}
 322              	.LCFI14:
 323              		.cfi_def_cfa_offset 4
 324 0002 00AF     		add	r7, sp, #0
 325              		.cfi_offset 7, -4
 326              	.LCFI15:
 327              		.cfi_def_cfa_register 7
 444:.\Generated_Source\PSoC5/PWM.c ****     while(PWM_ReadStatusRegister() & PWM_STATUS_FIFONEMPTY)
 328              		.loc 1 444 0
 329 0004 04E0     		b	.L15
 330              	.L16:
 445:.\Generated_Source\PSoC5/PWM.c ****         PWM_ReadCapture();
 331              		.loc 1 445 0
 332 0006 46F25B43 		movw	r3, #:lower16:1073767515
 333 000a C4F20003 		movt	r3, #:upper16:1073767515
 334 000e 1B78     		ldrb	r3, [r3, #0]
 335              	.L15:
 336              		.loc 1 444 0
 337 0010 46F26B43 		movw	r3, #:lower16:1073767531
 338 0014 C4F20003 		movt	r3, #:upper16:1073767531
 339 0018 1B78     		ldrb	r3, [r3, #0]
 340 001a DBB2     		uxtb	r3, r3
 341 001c 03F01003 		and	r3, r3, #16
 342 0020 002B     		cmp	r3, #0
 343 0022 F0D1     		bne	.L16
 446:.\Generated_Source\PSoC5/PWM.c **** }
 344              		.loc 1 446 0
 345 0024 BD46     		mov	sp, r7
 346 0026 80BC     		pop	{r7}
 347 0028 7047     		bx	lr
 348              		.cfi_endproc
ARM GAS  C:\Users\KEVIN-~1\AppData\Local\Temp\ccMhmRZ8.s 			page 15


 349              	.LFE6:
 350              		.size	PWM_ClearFIFO, .-PWM_ClearFIFO
 351 002a 00BF     		.section	.text.PWM_WritePeriod,"ax",%progbits
 352              		.align	2
 353              		.global	PWM_WritePeriod
 354              		.thumb
 355              		.thumb_func
 356              		.type	PWM_WritePeriod, %function
 357              	PWM_WritePeriod:
 358              	.LFB7:
 447:.\Generated_Source\PSoC5/PWM.c **** #endif /* PWM_UseStatus */
 448:.\Generated_Source\PSoC5/PWM.c **** #endif /* !PWM_UsingFixedFunction */
 449:.\Generated_Source\PSoC5/PWM.c **** 
 450:.\Generated_Source\PSoC5/PWM.c **** 
 451:.\Generated_Source\PSoC5/PWM.c **** /*******************************************************************************
 452:.\Generated_Source\PSoC5/PWM.c **** * Function Name: PWM_WritePeriod
 453:.\Generated_Source\PSoC5/PWM.c **** ********************************************************************************
 454:.\Generated_Source\PSoC5/PWM.c **** * 
 455:.\Generated_Source\PSoC5/PWM.c **** * Summary:
 456:.\Generated_Source\PSoC5/PWM.c **** *  This function is used to change the period of the counter.  The new period 
 457:.\Generated_Source\PSoC5/PWM.c **** *  will be loaded the next time terminal count is detected.
 458:.\Generated_Source\PSoC5/PWM.c **** *
 459:.\Generated_Source\PSoC5/PWM.c **** * Parameters:  
 460:.\Generated_Source\PSoC5/PWM.c **** *  period:  Period value. May be between 1 and (2^Resolution)-1.  A value of 0 
 461:.\Generated_Source\PSoC5/PWM.c **** *           will result in the counter remaining at zero.
 462:.\Generated_Source\PSoC5/PWM.c **** *
 463:.\Generated_Source\PSoC5/PWM.c **** * Return: 
 464:.\Generated_Source\PSoC5/PWM.c **** *  void
 465:.\Generated_Source\PSoC5/PWM.c **** *
 466:.\Generated_Source\PSoC5/PWM.c **** *******************************************************************************/
 467:.\Generated_Source\PSoC5/PWM.c **** void PWM_WritePeriod(uint8 period) 
 468:.\Generated_Source\PSoC5/PWM.c **** {
 359              		.loc 1 468 0
 360              		.cfi_startproc
 361              		@ args = 0, pretend = 0, frame = 8
 362              		@ frame_needed = 1, uses_anonymous_args = 0
 363              		@ link register save eliminated.
 364 0000 80B4     		push	{r7}
 365              	.LCFI16:
 366              		.cfi_def_cfa_offset 4
 367 0002 83B0     		sub	sp, sp, #12
 368              	.LCFI17:
 369              		.cfi_def_cfa_offset 16
 370 0004 00AF     		add	r7, sp, #0
 371              		.cfi_offset 7, -4
 372              	.LCFI18:
 373              		.cfi_def_cfa_register 7
 374 0006 0346     		mov	r3, r0
 375 0008 FB71     		strb	r3, [r7, #7]
 469:.\Generated_Source\PSoC5/PWM.c ****     #if(PWM_UsingFixedFunction)
 470:.\Generated_Source\PSoC5/PWM.c ****         CY_SET_REG16(PWM_PERIOD_LSB_PTR, (uint16)period);
 471:.\Generated_Source\PSoC5/PWM.c ****     #else
 472:.\Generated_Source\PSoC5/PWM.c ****         CY_SET_REG8(PWM_PERIOD_LSB_PTR, period);
 376              		.loc 1 472 0
 377 000a 46F24B43 		movw	r3, #:lower16:1073767499
 378 000e C4F20003 		movt	r3, #:upper16:1073767499
 379 0012 FA79     		ldrb	r2, [r7, #7]
ARM GAS  C:\Users\KEVIN-~1\AppData\Local\Temp\ccMhmRZ8.s 			page 16


 380 0014 1A70     		strb	r2, [r3, #0]
 473:.\Generated_Source\PSoC5/PWM.c ****     #endif /* (PWM_UsingFixedFunction) */
 474:.\Generated_Source\PSoC5/PWM.c **** }
 381              		.loc 1 474 0
 382 0016 07F10C07 		add	r7, r7, #12
 383 001a BD46     		mov	sp, r7
 384 001c 80BC     		pop	{r7}
 385 001e 7047     		bx	lr
 386              		.cfi_endproc
 387              	.LFE7:
 388              		.size	PWM_WritePeriod, .-PWM_WritePeriod
 389              		.section	.text.PWM_WriteCompare,"ax",%progbits
 390              		.align	2
 391              		.global	PWM_WriteCompare
 392              		.thumb
 393              		.thumb_func
 394              		.type	PWM_WriteCompare, %function
 395              	PWM_WriteCompare:
 396              	.LFB8:
 475:.\Generated_Source\PSoC5/PWM.c **** 
 476:.\Generated_Source\PSoC5/PWM.c **** 
 477:.\Generated_Source\PSoC5/PWM.c **** #if (PWM_UseOneCompareMode)
 478:.\Generated_Source\PSoC5/PWM.c **** 
 479:.\Generated_Source\PSoC5/PWM.c **** 
 480:.\Generated_Source\PSoC5/PWM.c **** /*******************************************************************************
 481:.\Generated_Source\PSoC5/PWM.c **** * Function Name: PWM_WriteCompare
 482:.\Generated_Source\PSoC5/PWM.c **** ********************************************************************************
 483:.\Generated_Source\PSoC5/PWM.c **** * 
 484:.\Generated_Source\PSoC5/PWM.c **** * Summary:
 485:.\Generated_Source\PSoC5/PWM.c **** *  This funtion is used to change the compare1 value when the PWM is in Dither
 486:.\Generated_Source\PSoC5/PWM.c **** *  mode. The compare output will reflect the new value on the next UDB clock. 
 487:.\Generated_Source\PSoC5/PWM.c **** *  The compare output will be driven high when the present counter value is 
 488:.\Generated_Source\PSoC5/PWM.c **** *  compared to the compare value based on the compare mode defined in 
 489:.\Generated_Source\PSoC5/PWM.c **** *  Dither Mode.
 490:.\Generated_Source\PSoC5/PWM.c **** *
 491:.\Generated_Source\PSoC5/PWM.c **** * Parameters:  
 492:.\Generated_Source\PSoC5/PWM.c **** *  compare:  New compare value.  
 493:.\Generated_Source\PSoC5/PWM.c **** *
 494:.\Generated_Source\PSoC5/PWM.c **** * Return: 
 495:.\Generated_Source\PSoC5/PWM.c **** *  void
 496:.\Generated_Source\PSoC5/PWM.c **** *
 497:.\Generated_Source\PSoC5/PWM.c **** * Side Effects:
 498:.\Generated_Source\PSoC5/PWM.c **** *  This function is only available if the PWM mode parameter is set to
 499:.\Generated_Source\PSoC5/PWM.c **** *  Dither Mode, Center Aligned Mode or One Output Mode
 500:.\Generated_Source\PSoC5/PWM.c **** *
 501:.\Generated_Source\PSoC5/PWM.c **** *******************************************************************************/
 502:.\Generated_Source\PSoC5/PWM.c **** void PWM_WriteCompare(uint8 compare) \
 503:.\Generated_Source\PSoC5/PWM.c ****                                    
 504:.\Generated_Source\PSoC5/PWM.c **** {
 397              		.loc 1 504 0
 398              		.cfi_startproc
 399              		@ args = 0, pretend = 0, frame = 8
 400              		@ frame_needed = 1, uses_anonymous_args = 0
 401              		@ link register save eliminated.
 402 0000 80B4     		push	{r7}
 403              	.LCFI19:
 404              		.cfi_def_cfa_offset 4
ARM GAS  C:\Users\KEVIN-~1\AppData\Local\Temp\ccMhmRZ8.s 			page 17


 405 0002 83B0     		sub	sp, sp, #12
 406              	.LCFI20:
 407              		.cfi_def_cfa_offset 16
 408 0004 00AF     		add	r7, sp, #0
 409              		.cfi_offset 7, -4
 410              	.LCFI21:
 411              		.cfi_def_cfa_register 7
 412 0006 0346     		mov	r3, r0
 413 0008 FB71     		strb	r3, [r7, #7]
 505:.\Generated_Source\PSoC5/PWM.c ****    CY_SET_REG8(PWM_COMPARE1_LSB_PTR, compare);
 414              		.loc 1 505 0
 415 000a 46F22B43 		movw	r3, #:lower16:1073767467
 416 000e C4F20003 		movt	r3, #:upper16:1073767467
 417 0012 FA79     		ldrb	r2, [r7, #7]
 418 0014 1A70     		strb	r2, [r3, #0]
 506:.\Generated_Source\PSoC5/PWM.c ****    #if (PWM_PWMMode == PWM__B_PWM__DITHER)
 507:.\Generated_Source\PSoC5/PWM.c ****         CY_SET_REG8(PWM_COMPARE2_LSB_PTR, compare+1);
 508:.\Generated_Source\PSoC5/PWM.c ****    #endif /* (PWM_PWMMode == PWM__B_PWM__DITHER) */
 509:.\Generated_Source\PSoC5/PWM.c **** }
 419              		.loc 1 509 0
 420 0016 07F10C07 		add	r7, r7, #12
 421 001a BD46     		mov	sp, r7
 422 001c 80BC     		pop	{r7}
 423 001e 7047     		bx	lr
 424              		.cfi_endproc
 425              	.LFE8:
 426              		.size	PWM_WriteCompare, .-PWM_WriteCompare
 427              		.text
 428              	.Letext0: