ARM GAS  C:\Users\KEVIN-~1\AppData\Local\Temp\ccoBurSc.s 			page 1


   1              		.syntax unified
   2              		.cpu cortex-m3
   3              		.fpu softvfp
   4              		.eabi_attribute 20, 1
   5              		.eabi_attribute 21, 1
   6              		.eabi_attribute 23, 3
   7              		.eabi_attribute 24, 1
   8              		.eabi_attribute 25, 1
   9              		.eabi_attribute 26, 1
  10              		.eabi_attribute 30, 6
  11              		.eabi_attribute 18, 4
  12              		.thumb
  13              		.file	"PWM_PM.c"
  20 0000 C9000000 		.text
  20      02006800 
  20      00000201 
  20      FB0E0D00 
  20      01010101 
  21              	.Ltext0:
  22              		.cfi_sections	.debug_frame
  23              		.bss
  24              		.align	2
  25              	PWM_backup:
  26 0000 00000000 		.space	5
  26      00
  27 0005 000000   		.section	.text.PWM_SaveConfig,"ax",%progbits
  28              		.align	2
  29              		.global	PWM_SaveConfig
  30              		.thumb
  31              		.thumb_func
  32              		.type	PWM_SaveConfig, %function
  33              	PWM_SaveConfig:
  34              	.LFB0:
  35              		.file 1 ".\\Generated_Source\\PSoC5\\PWM_PM.c"
   1:.\Generated_Source\PSoC5/PWM_PM.c **** /*******************************************************************************
   2:.\Generated_Source\PSoC5/PWM_PM.c **** * File Name: PWM_PM.c
   3:.\Generated_Source\PSoC5/PWM_PM.c **** * Version 2.20
   4:.\Generated_Source\PSoC5/PWM_PM.c **** *
   5:.\Generated_Source\PSoC5/PWM_PM.c **** * Description:
   6:.\Generated_Source\PSoC5/PWM_PM.c **** *  This file provides the power management source code to API for the
   7:.\Generated_Source\PSoC5/PWM_PM.c **** *  PWM.
   8:.\Generated_Source\PSoC5/PWM_PM.c **** *
   9:.\Generated_Source\PSoC5/PWM_PM.c **** * Note:
  10:.\Generated_Source\PSoC5/PWM_PM.c **** *
  11:.\Generated_Source\PSoC5/PWM_PM.c **** ********************************************************************************
  12:.\Generated_Source\PSoC5/PWM_PM.c **** * Copyright 2008-2012, Cypress Semiconductor Corporation.  All rights reserved.
  13:.\Generated_Source\PSoC5/PWM_PM.c **** * You may use this file only in accordance with the license, terms, conditions,
  14:.\Generated_Source\PSoC5/PWM_PM.c **** * disclaimers, and limitations in the end user license agreement accompanying
  15:.\Generated_Source\PSoC5/PWM_PM.c **** * the software package with which this file was provided.
  16:.\Generated_Source\PSoC5/PWM_PM.c **** *******************************************************************************/
  17:.\Generated_Source\PSoC5/PWM_PM.c **** #include "cytypes.h"
ARM GAS  C:\Users\KEVIN-~1\AppData\Local\Temp\ccoBurSc.s 			page 2


  18:.\Generated_Source\PSoC5/PWM_PM.c **** #include "PWM.h"
  19:.\Generated_Source\PSoC5/PWM_PM.c **** 
  20:.\Generated_Source\PSoC5/PWM_PM.c **** static PWM_backupStruct PWM_backup;
  21:.\Generated_Source\PSoC5/PWM_PM.c **** 
  22:.\Generated_Source\PSoC5/PWM_PM.c **** 
  23:.\Generated_Source\PSoC5/PWM_PM.c **** /*******************************************************************************
  24:.\Generated_Source\PSoC5/PWM_PM.c **** * Function Name: PWM_SaveConfig
  25:.\Generated_Source\PSoC5/PWM_PM.c **** ********************************************************************************
  26:.\Generated_Source\PSoC5/PWM_PM.c **** *
  27:.\Generated_Source\PSoC5/PWM_PM.c **** * Summary:
  28:.\Generated_Source\PSoC5/PWM_PM.c **** *  Saves the current user configuration of the component.
  29:.\Generated_Source\PSoC5/PWM_PM.c **** *  
  30:.\Generated_Source\PSoC5/PWM_PM.c **** * Parameters:  
  31:.\Generated_Source\PSoC5/PWM_PM.c **** *  void
  32:.\Generated_Source\PSoC5/PWM_PM.c **** *
  33:.\Generated_Source\PSoC5/PWM_PM.c **** * Return: 
  34:.\Generated_Source\PSoC5/PWM_PM.c **** *  void
  35:.\Generated_Source\PSoC5/PWM_PM.c **** *
  36:.\Generated_Source\PSoC5/PWM_PM.c **** * Global variables:
  37:.\Generated_Source\PSoC5/PWM_PM.c **** *  PWM_backup:  Variables of this global structure are modified to 
  38:.\Generated_Source\PSoC5/PWM_PM.c **** *  store the values of non retention configuration registers when Sleep() API is 
  39:.\Generated_Source\PSoC5/PWM_PM.c **** *  called.
  40:.\Generated_Source\PSoC5/PWM_PM.c **** *
  41:.\Generated_Source\PSoC5/PWM_PM.c **** *******************************************************************************/
  42:.\Generated_Source\PSoC5/PWM_PM.c **** void PWM_SaveConfig(void) 
  43:.\Generated_Source\PSoC5/PWM_PM.c **** {
  36              		.loc 1 43 0
  37              		.cfi_startproc
  38              		@ args = 0, pretend = 0, frame = 0
  39              		@ frame_needed = 1, uses_anonymous_args = 0
  40 0000 80B5     		push	{r7, lr}
  41              	.LCFI0:
  42              		.cfi_def_cfa_offset 8
  43 0002 00AF     		add	r7, sp, #0
  44              		.cfi_offset 14, -4
  45              		.cfi_offset 7, -8
  46              	.LCFI1:
  47              		.cfi_def_cfa_register 7
  44:.\Generated_Source\PSoC5/PWM_PM.c ****     
  45:.\Generated_Source\PSoC5/PWM_PM.c ****     #if(!PWM_UsingFixedFunction)
  46:.\Generated_Source\PSoC5/PWM_PM.c ****         #if (CY_PSOC5A)
  47:.\Generated_Source\PSoC5/PWM_PM.c ****             PWM_backup.PWMUdb = PWM_ReadCounter();
  48:.\Generated_Source\PSoC5/PWM_PM.c ****             PWM_backup.PWMPeriod = PWM_ReadPeriod();
  49:.\Generated_Source\PSoC5/PWM_PM.c ****             #if (PWM_UseStatus)
  50:.\Generated_Source\PSoC5/PWM_PM.c ****                 PWM_backup.InterruptMaskValue = PWM_STATUS_MASK;
  51:.\Generated_Source\PSoC5/PWM_PM.c ****             #endif /* (PWM_UseStatus) */
  52:.\Generated_Source\PSoC5/PWM_PM.c ****             
  53:.\Generated_Source\PSoC5/PWM_PM.c ****             #if(PWM_UseOneCompareMode)
  54:.\Generated_Source\PSoC5/PWM_PM.c ****                 PWM_backup.PWMCompareValue = PWM_ReadCompare();
  55:.\Generated_Source\PSoC5/PWM_PM.c ****             #else
  56:.\Generated_Source\PSoC5/PWM_PM.c ****                 PWM_backup.PWMCompareValue1 = PWM_ReadCompare1();
  57:.\Generated_Source\PSoC5/PWM_PM.c ****                 PWM_backup.PWMCompareValue2 = PWM_ReadCompare2();
  58:.\Generated_Source\PSoC5/PWM_PM.c ****             #endif /* (PWM_UseOneCompareMode) */
  59:.\Generated_Source\PSoC5/PWM_PM.c ****             
  60:.\Generated_Source\PSoC5/PWM_PM.c ****            #if(PWM_DeadBandUsed)
  61:.\Generated_Source\PSoC5/PWM_PM.c ****                 PWM_backup.PWMdeadBandValue = PWM_ReadDeadTime();
  62:.\Generated_Source\PSoC5/PWM_PM.c ****             #endif /* (PWM_DeadBandUsed) */
ARM GAS  C:\Users\KEVIN-~1\AppData\Local\Temp\ccoBurSc.s 			page 3


  63:.\Generated_Source\PSoC5/PWM_PM.c ****           
  64:.\Generated_Source\PSoC5/PWM_PM.c ****             #if ( PWM_KillModeMinTime)
  65:.\Generated_Source\PSoC5/PWM_PM.c ****                 PWM_backup.PWMKillCounterPeriod = PWM_ReadKillTime();
  66:.\Generated_Source\PSoC5/PWM_PM.c ****             #endif /* ( PWM_KillModeMinTime) */
  67:.\Generated_Source\PSoC5/PWM_PM.c ****         #endif /* (CY_PSOC5A) */
  68:.\Generated_Source\PSoC5/PWM_PM.c ****         
  69:.\Generated_Source\PSoC5/PWM_PM.c ****         #if (CY_PSOC3 || CY_PSOC5LP)
  70:.\Generated_Source\PSoC5/PWM_PM.c ****             #if(!PWM_PWMModeIsCenterAligned)
  71:.\Generated_Source\PSoC5/PWM_PM.c ****                 PWM_backup.PWMPeriod = PWM_ReadPeriod();
  48              		.loc 1 71 0
  49 0004 46F24B43 		movw	r3, #:lower16:1073767499
  50 0008 C4F20003 		movt	r3, #:upper16:1073767499
  51 000c 1B78     		ldrb	r3, [r3, #0]
  52 000e DAB2     		uxtb	r2, r3
  53 0010 40F20003 		movw	r3, #:lower16:PWM_backup
  54 0014 C0F20003 		movt	r3, #:upper16:PWM_backup
  55 0018 9A70     		strb	r2, [r3, #2]
  72:.\Generated_Source\PSoC5/PWM_PM.c ****             #endif /* (!PWM_PWMModeIsCenterAligned) */
  73:.\Generated_Source\PSoC5/PWM_PM.c ****             PWM_backup.PWMUdb = PWM_ReadCounter();
  56              		.loc 1 73 0
  57 001a FFF7FEFF 		bl	PWM_ReadCounter
  58 001e 0346     		mov	r3, r0
  59 0020 1A46     		mov	r2, r3
  60 0022 40F20003 		movw	r3, #:lower16:PWM_backup
  61 0026 C0F20003 		movt	r3, #:upper16:PWM_backup
  62 002a 5A70     		strb	r2, [r3, #1]
  74:.\Generated_Source\PSoC5/PWM_PM.c ****             #if (PWM_UseStatus)
  75:.\Generated_Source\PSoC5/PWM_PM.c ****                 PWM_backup.InterruptMaskValue = PWM_STATUS_MASK;
  63              		.loc 1 75 0
  64 002c 46F28B43 		movw	r3, #:lower16:1073767563
  65 0030 C4F20003 		movt	r3, #:upper16:1073767563
  66 0034 1B78     		ldrb	r3, [r3, #0]
  67 0036 DAB2     		uxtb	r2, r3
  68 0038 40F20003 		movw	r3, #:lower16:PWM_backup
  69 003c C0F20003 		movt	r3, #:upper16:PWM_backup
  70 0040 DA70     		strb	r2, [r3, #3]
  76:.\Generated_Source\PSoC5/PWM_PM.c ****             #endif /* (PWM_UseStatus) */
  77:.\Generated_Source\PSoC5/PWM_PM.c ****             
  78:.\Generated_Source\PSoC5/PWM_PM.c ****             #if(PWM_DeadBandMode == PWM__B_PWM__DBM_256_CLOCKS || \
  79:.\Generated_Source\PSoC5/PWM_PM.c ****                 PWM_DeadBandMode == PWM__B_PWM__DBM_2_4_CLOCKS)
  80:.\Generated_Source\PSoC5/PWM_PM.c ****                 PWM_backup.PWMdeadBandValue = PWM_ReadDeadTime();
  81:.\Generated_Source\PSoC5/PWM_PM.c ****             #endif /*  deadband count is either 2-4 clocks or 256 clocks */
  82:.\Generated_Source\PSoC5/PWM_PM.c ****             
  83:.\Generated_Source\PSoC5/PWM_PM.c ****             #if(PWM_KillModeMinTime)
  84:.\Generated_Source\PSoC5/PWM_PM.c ****                  PWM_backup.PWMKillCounterPeriod = PWM_ReadKillTime();
  85:.\Generated_Source\PSoC5/PWM_PM.c ****             #endif /* (PWM_KillModeMinTime) */
  86:.\Generated_Source\PSoC5/PWM_PM.c ****         #endif /* (CY_PSOC3 || CY_PSOC5LP) */
  87:.\Generated_Source\PSoC5/PWM_PM.c ****         
  88:.\Generated_Source\PSoC5/PWM_PM.c ****         #if(PWM_UseControl)
  89:.\Generated_Source\PSoC5/PWM_PM.c ****             PWM_backup.PWMControlRegister = PWM_ReadControlRegister();
  71              		.loc 1 89 0
  72 0042 46F27B43 		movw	r3, #:lower16:1073767547
  73 0046 C4F20003 		movt	r3, #:upper16:1073767547
  74 004a 1B78     		ldrb	r3, [r3, #0]
  75 004c DAB2     		uxtb	r2, r3
  76 004e 40F20003 		movw	r3, #:lower16:PWM_backup
  77 0052 C0F20003 		movt	r3, #:upper16:PWM_backup
ARM GAS  C:\Users\KEVIN-~1\AppData\Local\Temp\ccoBurSc.s 			page 4


  78 0056 1A71     		strb	r2, [r3, #4]
  90:.\Generated_Source\PSoC5/PWM_PM.c ****         #endif /* (PWM_UseControl) */
  91:.\Generated_Source\PSoC5/PWM_PM.c ****     #endif  /* (!PWM_UsingFixedFunction) */
  92:.\Generated_Source\PSoC5/PWM_PM.c **** }
  79              		.loc 1 92 0
  80 0058 80BD     		pop	{r7, pc}
  81              		.cfi_endproc
  82              	.LFE0:
  83              		.size	PWM_SaveConfig, .-PWM_SaveConfig
  84 005a 00BF     		.section	.text.PWM_RestoreConfig,"ax",%progbits
  85              		.align	2
  86              		.global	PWM_RestoreConfig
  87              		.thumb
  88              		.thumb_func
  89              		.type	PWM_RestoreConfig, %function
  90              	PWM_RestoreConfig:
  91              	.LFB1:
  93:.\Generated_Source\PSoC5/PWM_PM.c **** 
  94:.\Generated_Source\PSoC5/PWM_PM.c **** 
  95:.\Generated_Source\PSoC5/PWM_PM.c **** /*******************************************************************************
  96:.\Generated_Source\PSoC5/PWM_PM.c **** * Function Name: PWM_RestoreConfig
  97:.\Generated_Source\PSoC5/PWM_PM.c **** ********************************************************************************
  98:.\Generated_Source\PSoC5/PWM_PM.c **** * 
  99:.\Generated_Source\PSoC5/PWM_PM.c **** * Summary:
 100:.\Generated_Source\PSoC5/PWM_PM.c **** *  Restores the current user configuration of the component.
 101:.\Generated_Source\PSoC5/PWM_PM.c **** *
 102:.\Generated_Source\PSoC5/PWM_PM.c **** * Parameters:  
 103:.\Generated_Source\PSoC5/PWM_PM.c **** *  void
 104:.\Generated_Source\PSoC5/PWM_PM.c **** *
 105:.\Generated_Source\PSoC5/PWM_PM.c **** * Return: 
 106:.\Generated_Source\PSoC5/PWM_PM.c **** *  void
 107:.\Generated_Source\PSoC5/PWM_PM.c **** *
 108:.\Generated_Source\PSoC5/PWM_PM.c **** * Global variables:
 109:.\Generated_Source\PSoC5/PWM_PM.c **** *  PWM_backup:  Variables of this global structure are used to  
 110:.\Generated_Source\PSoC5/PWM_PM.c **** *  restore the values of non retention registers on wakeup from sleep mode.
 111:.\Generated_Source\PSoC5/PWM_PM.c **** *
 112:.\Generated_Source\PSoC5/PWM_PM.c **** *******************************************************************************/
 113:.\Generated_Source\PSoC5/PWM_PM.c **** void PWM_RestoreConfig(void) 
 114:.\Generated_Source\PSoC5/PWM_PM.c **** {
  92              		.loc 1 114 0
  93              		.cfi_startproc
  94              		@ args = 0, pretend = 0, frame = 0
  95              		@ frame_needed = 1, uses_anonymous_args = 0
  96 0000 80B5     		push	{r7, lr}
  97              	.LCFI2:
  98              		.cfi_def_cfa_offset 8
  99 0002 00AF     		add	r7, sp, #0
 100              		.cfi_offset 14, -4
 101              		.cfi_offset 7, -8
 102              	.LCFI3:
 103              		.cfi_def_cfa_register 7
 115:.\Generated_Source\PSoC5/PWM_PM.c ****         #if(!PWM_UsingFixedFunction)
 116:.\Generated_Source\PSoC5/PWM_PM.c ****             #if (CY_PSOC5A)
 117:.\Generated_Source\PSoC5/PWM_PM.c ****                 /* Interrupt State Backup for Critical Region*/
 118:.\Generated_Source\PSoC5/PWM_PM.c ****                 uint8 PWM_interruptState;
 119:.\Generated_Source\PSoC5/PWM_PM.c ****                 /* Enter Critical Region*/
 120:.\Generated_Source\PSoC5/PWM_PM.c ****                 PWM_interruptState = CyEnterCriticalSection();
ARM GAS  C:\Users\KEVIN-~1\AppData\Local\Temp\ccoBurSc.s 			page 5


 121:.\Generated_Source\PSoC5/PWM_PM.c ****                 #if (PWM_UseStatus)
 122:.\Generated_Source\PSoC5/PWM_PM.c ****                     /* Use the interrupt output of the status register for IRQ output */
 123:.\Generated_Source\PSoC5/PWM_PM.c ****                     PWM_STATUS_AUX_CTRL |= PWM_STATUS_ACTL_INT_EN_MASK;
 124:.\Generated_Source\PSoC5/PWM_PM.c ****                     
 125:.\Generated_Source\PSoC5/PWM_PM.c ****                     PWM_STATUS_MASK = PWM_backup.InterruptMaskValue;
 126:.\Generated_Source\PSoC5/PWM_PM.c ****                 #endif /* (PWM_UseStatus) */
 127:.\Generated_Source\PSoC5/PWM_PM.c ****                 
 128:.\Generated_Source\PSoC5/PWM_PM.c ****                 #if (PWM_Resolution == 8)
 129:.\Generated_Source\PSoC5/PWM_PM.c ****                     /* Set FIFO 0 to 1 byte register for period*/
 130:.\Generated_Source\PSoC5/PWM_PM.c ****                     PWM_AUX_CONTROLDP0 |= (PWM_AUX_CTRL_FIFO0_CLR);
 131:.\Generated_Source\PSoC5/PWM_PM.c ****                 #else /* (PWM_Resolution == 16)*/
 132:.\Generated_Source\PSoC5/PWM_PM.c ****                     /* Set FIFO 0 to 1 byte register for period */
 133:.\Generated_Source\PSoC5/PWM_PM.c ****                     PWM_AUX_CONTROLDP0 |= (PWM_AUX_CTRL_FIFO0_CLR);
 134:.\Generated_Source\PSoC5/PWM_PM.c ****                     PWM_AUX_CONTROLDP1 |= (PWM_AUX_CTRL_FIFO0_CLR);
 135:.\Generated_Source\PSoC5/PWM_PM.c ****                 #endif /* (PWM_Resolution == 8) */
 136:.\Generated_Source\PSoC5/PWM_PM.c ****                 /* Exit Critical Region*/
 137:.\Generated_Source\PSoC5/PWM_PM.c ****                 CyExitCriticalSection(PWM_interruptState);
 138:.\Generated_Source\PSoC5/PWM_PM.c ****                 
 139:.\Generated_Source\PSoC5/PWM_PM.c ****                 PWM_WriteCounter(PWM_backup.PWMUdb);
 140:.\Generated_Source\PSoC5/PWM_PM.c ****                 PWM_WritePeriod(PWM_backup.PWMPeriod);
 141:.\Generated_Source\PSoC5/PWM_PM.c ****                 
 142:.\Generated_Source\PSoC5/PWM_PM.c ****                 #if(PWM_UseOneCompareMode)
 143:.\Generated_Source\PSoC5/PWM_PM.c ****                     PWM_WriteCompare(PWM_backup.PWMCompareValue);
 144:.\Generated_Source\PSoC5/PWM_PM.c ****                 #else
 145:.\Generated_Source\PSoC5/PWM_PM.c ****                     PWM_WriteCompare1(PWM_backup.PWMCompareValue1);
 146:.\Generated_Source\PSoC5/PWM_PM.c ****                     PWM_WriteCompare2(PWM_backup.PWMCompareValue2);
 147:.\Generated_Source\PSoC5/PWM_PM.c ****                 #endif /* (PWM_UseOneCompareMode) */
 148:.\Generated_Source\PSoC5/PWM_PM.c ****                 
 149:.\Generated_Source\PSoC5/PWM_PM.c ****                #if(PWM_DeadBandMode == PWM__B_PWM__DBM_256_CLOCKS || \
 150:.\Generated_Source\PSoC5/PWM_PM.c ****                    PWM_DeadBandMode == PWM__B_PWM__DBM_2_4_CLOCKS)
 151:.\Generated_Source\PSoC5/PWM_PM.c ****                     PWM_WriteDeadTime(PWM_backup.PWMdeadBandValue);
 152:.\Generated_Source\PSoC5/PWM_PM.c ****                 #endif /* deadband count is either 2-4 clocks or 256 clocks */
 153:.\Generated_Source\PSoC5/PWM_PM.c ****             
 154:.\Generated_Source\PSoC5/PWM_PM.c ****                 #if ( PWM_KillModeMinTime)
 155:.\Generated_Source\PSoC5/PWM_PM.c ****                     PWM_WriteKillTime(PWM_backup.PWMKillCounterPeriod);
 156:.\Generated_Source\PSoC5/PWM_PM.c ****                 #endif /* ( PWM_KillModeMinTime) */
 157:.\Generated_Source\PSoC5/PWM_PM.c ****             #endif /* (CY_PSOC5A) */
 158:.\Generated_Source\PSoC5/PWM_PM.c ****             
 159:.\Generated_Source\PSoC5/PWM_PM.c ****             #if (CY_PSOC3 || CY_PSOC5LP)
 160:.\Generated_Source\PSoC5/PWM_PM.c ****                 #if(!PWM_PWMModeIsCenterAligned)
 161:.\Generated_Source\PSoC5/PWM_PM.c ****                     PWM_WritePeriod(PWM_backup.PWMPeriod);
 104              		.loc 1 161 0
 105 0004 40F20003 		movw	r3, #:lower16:PWM_backup
 106 0008 C0F20003 		movt	r3, #:upper16:PWM_backup
 107 000c 9B78     		ldrb	r3, [r3, #2]	@ zero_extendqisi2
 108 000e 1846     		mov	r0, r3
 109 0010 FFF7FEFF 		bl	PWM_WritePeriod
 162:.\Generated_Source\PSoC5/PWM_PM.c ****                 #endif /* (!PWM_PWMModeIsCenterAligned) */
 163:.\Generated_Source\PSoC5/PWM_PM.c ****                 PWM_WriteCounter(PWM_backup.PWMUdb);
 110              		.loc 1 163 0
 111 0014 40F20003 		movw	r3, #:lower16:PWM_backup
 112 0018 C0F20003 		movt	r3, #:upper16:PWM_backup
 113 001c 5B78     		ldrb	r3, [r3, #1]	@ zero_extendqisi2
 114 001e 1846     		mov	r0, r3
 115 0020 FFF7FEFF 		bl	PWM_WriteCounter
 164:.\Generated_Source\PSoC5/PWM_PM.c ****                 #if (PWM_UseStatus)
 165:.\Generated_Source\PSoC5/PWM_PM.c ****                     PWM_STATUS_MASK = PWM_backup.InterruptMaskValue;
ARM GAS  C:\Users\KEVIN-~1\AppData\Local\Temp\ccoBurSc.s 			page 6


 116              		.loc 1 165 0
 117 0024 46F28B43 		movw	r3, #:lower16:1073767563
 118 0028 C4F20003 		movt	r3, #:upper16:1073767563
 119 002c 40F20002 		movw	r2, #:lower16:PWM_backup
 120 0030 C0F20002 		movt	r2, #:upper16:PWM_backup
 121 0034 D278     		ldrb	r2, [r2, #3]	@ zero_extendqisi2
 122 0036 1A70     		strb	r2, [r3, #0]
 166:.\Generated_Source\PSoC5/PWM_PM.c ****                 #endif /* (PWM_UseStatus) */
 167:.\Generated_Source\PSoC5/PWM_PM.c ****                 
 168:.\Generated_Source\PSoC5/PWM_PM.c ****                 #if(PWM_DeadBandMode == PWM__B_PWM__DBM_256_CLOCKS || \
 169:.\Generated_Source\PSoC5/PWM_PM.c ****                     PWM_DeadBandMode == PWM__B_PWM__DBM_2_4_CLOCKS)
 170:.\Generated_Source\PSoC5/PWM_PM.c ****                     PWM_WriteDeadTime(PWM_backup.PWMdeadBandValue);
 171:.\Generated_Source\PSoC5/PWM_PM.c ****                 #endif /* deadband count is either 2-4 clocks or 256 clocks */
 172:.\Generated_Source\PSoC5/PWM_PM.c ****                 
 173:.\Generated_Source\PSoC5/PWM_PM.c ****                 #if(PWM_KillModeMinTime)
 174:.\Generated_Source\PSoC5/PWM_PM.c ****                     PWM_WriteKillTime(PWM_backup.PWMKillCounterPeriod);
 175:.\Generated_Source\PSoC5/PWM_PM.c ****                 #endif /* (PWM_KillModeMinTime) */
 176:.\Generated_Source\PSoC5/PWM_PM.c ****             #endif /* (CY_PSOC3 || CY_PSOC5LP) */
 177:.\Generated_Source\PSoC5/PWM_PM.c ****             
 178:.\Generated_Source\PSoC5/PWM_PM.c ****             #if(PWM_UseControl)
 179:.\Generated_Source\PSoC5/PWM_PM.c ****                 PWM_WriteControlRegister(PWM_backup.PWMControlRegister); 
 123              		.loc 1 179 0
 124 0038 46F27B43 		movw	r3, #:lower16:1073767547
 125 003c C4F20003 		movt	r3, #:upper16:1073767547
 126 0040 40F20002 		movw	r2, #:lower16:PWM_backup
 127 0044 C0F20002 		movt	r2, #:upper16:PWM_backup
 128 0048 1279     		ldrb	r2, [r2, #4]	@ zero_extendqisi2
 129 004a 1A70     		strb	r2, [r3, #0]
 180:.\Generated_Source\PSoC5/PWM_PM.c ****             #endif /* (PWM_UseControl) */
 181:.\Generated_Source\PSoC5/PWM_PM.c ****         #endif  /* (!PWM_UsingFixedFunction) */
 182:.\Generated_Source\PSoC5/PWM_PM.c ****     }
 130              		.loc 1 182 0
 131 004c 80BD     		pop	{r7, pc}
 132              		.cfi_endproc
 133              	.LFE1:
 134              		.size	PWM_RestoreConfig, .-PWM_RestoreConfig
 135 004e 00BF     		.section	.text.PWM_Sleep,"ax",%progbits
 136              		.align	2
 137              		.global	PWM_Sleep
 138              		.thumb
 139              		.thumb_func
 140              		.type	PWM_Sleep, %function
 141              	PWM_Sleep:
 142              	.LFB2:
 183:.\Generated_Source\PSoC5/PWM_PM.c **** 
 184:.\Generated_Source\PSoC5/PWM_PM.c **** 
 185:.\Generated_Source\PSoC5/PWM_PM.c **** /*******************************************************************************
 186:.\Generated_Source\PSoC5/PWM_PM.c **** * Function Name: PWM_Sleep
 187:.\Generated_Source\PSoC5/PWM_PM.c **** ********************************************************************************
 188:.\Generated_Source\PSoC5/PWM_PM.c **** * 
 189:.\Generated_Source\PSoC5/PWM_PM.c **** * Summary:
 190:.\Generated_Source\PSoC5/PWM_PM.c **** *  Disables block's operation and saves the user configuration. Should be called 
 191:.\Generated_Source\PSoC5/PWM_PM.c **** *  just prior to entering sleep.
 192:.\Generated_Source\PSoC5/PWM_PM.c **** *  
 193:.\Generated_Source\PSoC5/PWM_PM.c **** * Parameters:  
 194:.\Generated_Source\PSoC5/PWM_PM.c **** *  void
 195:.\Generated_Source\PSoC5/PWM_PM.c **** *
ARM GAS  C:\Users\KEVIN-~1\AppData\Local\Temp\ccoBurSc.s 			page 7


 196:.\Generated_Source\PSoC5/PWM_PM.c **** * Return: 
 197:.\Generated_Source\PSoC5/PWM_PM.c **** *  void
 198:.\Generated_Source\PSoC5/PWM_PM.c **** *
 199:.\Generated_Source\PSoC5/PWM_PM.c **** * Global variables:
 200:.\Generated_Source\PSoC5/PWM_PM.c **** *  PWM_backup.PWMEnableState:  Is modified depending on the enable 
 201:.\Generated_Source\PSoC5/PWM_PM.c **** *  state of the block before entering sleep mode.
 202:.\Generated_Source\PSoC5/PWM_PM.c **** *
 203:.\Generated_Source\PSoC5/PWM_PM.c **** *******************************************************************************/
 204:.\Generated_Source\PSoC5/PWM_PM.c **** void PWM_Sleep(void) 
 205:.\Generated_Source\PSoC5/PWM_PM.c **** {
 143              		.loc 1 205 0
 144              		.cfi_startproc
 145              		@ args = 0, pretend = 0, frame = 0
 146              		@ frame_needed = 1, uses_anonymous_args = 0
 147 0000 80B5     		push	{r7, lr}
 148              	.LCFI4:
 149              		.cfi_def_cfa_offset 8
 150 0002 00AF     		add	r7, sp, #0
 151              		.cfi_offset 14, -4
 152              		.cfi_offset 7, -8
 153              	.LCFI5:
 154              		.cfi_def_cfa_register 7
 206:.\Generated_Source\PSoC5/PWM_PM.c ****     #if(PWM_UseControl)
 207:.\Generated_Source\PSoC5/PWM_PM.c ****         if(PWM_CTRL_ENABLE == (PWM_CONTROL & PWM_CTRL_ENABLE))
 155              		.loc 1 207 0
 156 0004 46F27B43 		movw	r3, #:lower16:1073767547
 157 0008 C4F20003 		movt	r3, #:upper16:1073767547
 158 000c 1B78     		ldrb	r3, [r3, #0]
 159 000e DBB2     		uxtb	r3, r3
 160 0010 5BB2     		sxtb	r3, r3
 161 0012 002B     		cmp	r3, #0
 162 0014 07DA     		bge	.L6
 208:.\Generated_Source\PSoC5/PWM_PM.c ****         {
 209:.\Generated_Source\PSoC5/PWM_PM.c ****             /*Component is enabled */
 210:.\Generated_Source\PSoC5/PWM_PM.c ****             PWM_backup.PWMEnableState = 1u;
 163              		.loc 1 210 0
 164 0016 40F20003 		movw	r3, #:lower16:PWM_backup
 165 001a C0F20003 		movt	r3, #:upper16:PWM_backup
 166 001e 4FF00102 		mov	r2, #1
 167 0022 1A70     		strb	r2, [r3, #0]
 168 0024 06E0     		b	.L7
 169              	.L6:
 211:.\Generated_Source\PSoC5/PWM_PM.c ****         }
 212:.\Generated_Source\PSoC5/PWM_PM.c ****         else
 213:.\Generated_Source\PSoC5/PWM_PM.c ****         {
 214:.\Generated_Source\PSoC5/PWM_PM.c ****             /* Component is disabled */
 215:.\Generated_Source\PSoC5/PWM_PM.c ****             PWM_backup.PWMEnableState = 0u;
 170              		.loc 1 215 0
 171 0026 40F20003 		movw	r3, #:lower16:PWM_backup
 172 002a C0F20003 		movt	r3, #:upper16:PWM_backup
 173 002e 4FF00002 		mov	r2, #0
 174 0032 1A70     		strb	r2, [r3, #0]
 175              	.L7:
 216:.\Generated_Source\PSoC5/PWM_PM.c ****         }
 217:.\Generated_Source\PSoC5/PWM_PM.c ****     #endif /* (PWM_UseControl) */
 218:.\Generated_Source\PSoC5/PWM_PM.c ****     /* Stop component */
 219:.\Generated_Source\PSoC5/PWM_PM.c ****     PWM_Stop();
ARM GAS  C:\Users\KEVIN-~1\AppData\Local\Temp\ccoBurSc.s 			page 8


 176              		.loc 1 219 0
 177 0034 FFF7FEFF 		bl	PWM_Stop
 220:.\Generated_Source\PSoC5/PWM_PM.c ****     
 221:.\Generated_Source\PSoC5/PWM_PM.c ****     /* Save registers configuration */
 222:.\Generated_Source\PSoC5/PWM_PM.c ****     PWM_SaveConfig();
 178              		.loc 1 222 0
 179 0038 FFF7FEFF 		bl	PWM_SaveConfig
 223:.\Generated_Source\PSoC5/PWM_PM.c **** }
 180              		.loc 1 223 0
 181 003c 80BD     		pop	{r7, pc}
 182              		.cfi_endproc
 183              	.LFE2:
 184              		.size	PWM_Sleep, .-PWM_Sleep
 185 003e 00BF     		.section	.text.PWM_Wakeup,"ax",%progbits
 186              		.align	2
 187              		.global	PWM_Wakeup
 188              		.thumb
 189              		.thumb_func
 190              		.type	PWM_Wakeup, %function
 191              	PWM_Wakeup:
 192              	.LFB3:
 224:.\Generated_Source\PSoC5/PWM_PM.c **** 
 225:.\Generated_Source\PSoC5/PWM_PM.c **** 
 226:.\Generated_Source\PSoC5/PWM_PM.c **** /*******************************************************************************
 227:.\Generated_Source\PSoC5/PWM_PM.c **** * Function Name: PWM_Wakeup
 228:.\Generated_Source\PSoC5/PWM_PM.c **** ********************************************************************************
 229:.\Generated_Source\PSoC5/PWM_PM.c **** * 
 230:.\Generated_Source\PSoC5/PWM_PM.c **** * Summary:
 231:.\Generated_Source\PSoC5/PWM_PM.c **** *  Restores and enables the user configuration. Should be called just after 
 232:.\Generated_Source\PSoC5/PWM_PM.c **** *  awaking from sleep.
 233:.\Generated_Source\PSoC5/PWM_PM.c **** *  
 234:.\Generated_Source\PSoC5/PWM_PM.c **** * Parameters:  
 235:.\Generated_Source\PSoC5/PWM_PM.c **** *  void
 236:.\Generated_Source\PSoC5/PWM_PM.c **** *
 237:.\Generated_Source\PSoC5/PWM_PM.c **** * Return: 
 238:.\Generated_Source\PSoC5/PWM_PM.c **** *  void
 239:.\Generated_Source\PSoC5/PWM_PM.c **** *
 240:.\Generated_Source\PSoC5/PWM_PM.c **** * Global variables:
 241:.\Generated_Source\PSoC5/PWM_PM.c **** *  PWM_backup.pwmEnable:  Is used to restore the enable state of 
 242:.\Generated_Source\PSoC5/PWM_PM.c **** *  block on wakeup from sleep mode.
 243:.\Generated_Source\PSoC5/PWM_PM.c **** *
 244:.\Generated_Source\PSoC5/PWM_PM.c **** *******************************************************************************/
 245:.\Generated_Source\PSoC5/PWM_PM.c **** void PWM_Wakeup(void) 
 246:.\Generated_Source\PSoC5/PWM_PM.c **** {
 193              		.loc 1 246 0
 194              		.cfi_startproc
 195              		@ args = 0, pretend = 0, frame = 0
 196              		@ frame_needed = 1, uses_anonymous_args = 0
 197 0000 80B5     		push	{r7, lr}
 198              	.LCFI6:
 199              		.cfi_def_cfa_offset 8
 200 0002 00AF     		add	r7, sp, #0
 201              		.cfi_offset 14, -4
 202              		.cfi_offset 7, -8
 203              	.LCFI7:
 204              		.cfi_def_cfa_register 7
 247:.\Generated_Source\PSoC5/PWM_PM.c ****      /* Restore registers values */
ARM GAS  C:\Users\KEVIN-~1\AppData\Local\Temp\ccoBurSc.s 			page 9


 248:.\Generated_Source\PSoC5/PWM_PM.c ****     PWM_RestoreConfig();
 205              		.loc 1 248 0
 206 0004 FFF7FEFF 		bl	PWM_RestoreConfig
 249:.\Generated_Source\PSoC5/PWM_PM.c ****     
 250:.\Generated_Source\PSoC5/PWM_PM.c ****     if(PWM_backup.PWMEnableState != 0u)
 207              		.loc 1 250 0
 208 0008 40F20003 		movw	r3, #:lower16:PWM_backup
 209 000c C0F20003 		movt	r3, #:upper16:PWM_backup
 210 0010 1B78     		ldrb	r3, [r3, #0]	@ zero_extendqisi2
 211 0012 002B     		cmp	r3, #0
 212 0014 01D0     		beq	.L11
 251:.\Generated_Source\PSoC5/PWM_PM.c ****     {
 252:.\Generated_Source\PSoC5/PWM_PM.c ****         /* Enable component's operation */
 253:.\Generated_Source\PSoC5/PWM_PM.c ****         PWM_Enable();
 213              		.loc 1 253 0
 214 0016 FFF7FEFF 		bl	PWM_Enable
 215              	.L11:
 254:.\Generated_Source\PSoC5/PWM_PM.c ****     } /* Do nothing if component's block was disabled before */
 255:.\Generated_Source\PSoC5/PWM_PM.c ****     
 256:.\Generated_Source\PSoC5/PWM_PM.c **** }
 216              		.loc 1 256 0
 217 001a 80BD     		pop	{r7, pc}
 218              		.cfi_endproc
 219              	.LFE3:
 220              		.size	PWM_Wakeup, .-PWM_Wakeup
 221              		.text
 222              	.Letext0: