ARM GAS  C:\Users\KEVIN-~1\AppData\Local\Temp\ccjYe5ro.s 			page 1


   1              		.syntax unified
   2              		.cpu cortex-m3
   3              		.fpu softvfp
   4              		.eabi_attribute 20, 1
   5              		.eabi_attribute 21, 1
   6              		.eabi_attribute 23, 3
   7              		.eabi_attribute 24, 1
   8              		.eabi_attribute 25, 1
   9              		.eabi_attribute 26, 1
  10              		.eabi_attribute 30, 6
  11              		.eabi_attribute 18, 4
  12              		.thumb
  13              		.file	"USBFS_Dp.c"
  20 0000 C1000000 		.text
  20      02006100 
  20      00000201 
  20      FB0E0D00 
  20      01010101 
  21              	.Ltext0:
  22              		.cfi_sections	.debug_frame
  23              		.section	.text.USBFS_Dp_Write,"ax",%progbits
  24              		.align	2
  25              		.global	USBFS_Dp_Write
  26              		.thumb
  27              		.thumb_func
  28              		.type	USBFS_Dp_Write, %function
  29              	USBFS_Dp_Write:
  30              	.LFB0:
  31              		.file 1 ".\\Generated_Source\\PSoC5\\USBFS_Dp.c"
   1:.\Generated_Source\PSoC5/USBFS_Dp.c **** /*******************************************************************************
   2:.\Generated_Source\PSoC5/USBFS_Dp.c **** * File Name: USBFS_Dp.c  
   3:.\Generated_Source\PSoC5/USBFS_Dp.c **** * Version 1.70
   4:.\Generated_Source\PSoC5/USBFS_Dp.c **** *
   5:.\Generated_Source\PSoC5/USBFS_Dp.c **** * Description:
   6:.\Generated_Source\PSoC5/USBFS_Dp.c **** *  This file contains API to enable firmware control of a Pins component.
   7:.\Generated_Source\PSoC5/USBFS_Dp.c **** *
   8:.\Generated_Source\PSoC5/USBFS_Dp.c **** * Note:
   9:.\Generated_Source\PSoC5/USBFS_Dp.c **** *
  10:.\Generated_Source\PSoC5/USBFS_Dp.c **** ********************************************************************************
  11:.\Generated_Source\PSoC5/USBFS_Dp.c **** * Copyright 2008-2010, Cypress Semiconductor Corporation.  All rights reserved.
  12:.\Generated_Source\PSoC5/USBFS_Dp.c **** * You may use this file only in accordance with the license, terms, conditions, 
  13:.\Generated_Source\PSoC5/USBFS_Dp.c **** * disclaimers, and limitations in the end user license agreement accompanying 
  14:.\Generated_Source\PSoC5/USBFS_Dp.c **** * the software package with which this file was provided.
  15:.\Generated_Source\PSoC5/USBFS_Dp.c **** ********************************************************************************/
  16:.\Generated_Source\PSoC5/USBFS_Dp.c **** 
  17:.\Generated_Source\PSoC5/USBFS_Dp.c **** #include "cytypes.h"
  18:.\Generated_Source\PSoC5/USBFS_Dp.c **** #include "USBFS_Dp.h"
  19:.\Generated_Source\PSoC5/USBFS_Dp.c **** 
  20:.\Generated_Source\PSoC5/USBFS_Dp.c **** /* APIs are not generated for P15[7:6] */
  21:.\Generated_Source\PSoC5/USBFS_Dp.c **** #if !(CY_PSOC5A &&\
  22:.\Generated_Source\PSoC5/USBFS_Dp.c **** 	 USBFS_Dp__PORT == 15 && (USBFS_Dp__MASK & 0xC0))
ARM GAS  C:\Users\KEVIN-~1\AppData\Local\Temp\ccjYe5ro.s 			page 2


  23:.\Generated_Source\PSoC5/USBFS_Dp.c **** 
  24:.\Generated_Source\PSoC5/USBFS_Dp.c **** /*******************************************************************************
  25:.\Generated_Source\PSoC5/USBFS_Dp.c **** * Function Name: USBFS_Dp_Write
  26:.\Generated_Source\PSoC5/USBFS_Dp.c **** ********************************************************************************
  27:.\Generated_Source\PSoC5/USBFS_Dp.c **** * Summary:
  28:.\Generated_Source\PSoC5/USBFS_Dp.c **** *  Assign a new value to the digital port's data output register.  
  29:.\Generated_Source\PSoC5/USBFS_Dp.c **** *
  30:.\Generated_Source\PSoC5/USBFS_Dp.c **** * Parameters:  
  31:.\Generated_Source\PSoC5/USBFS_Dp.c **** *  prtValue:  The value to be assigned to the Digital Port. 
  32:.\Generated_Source\PSoC5/USBFS_Dp.c **** *
  33:.\Generated_Source\PSoC5/USBFS_Dp.c **** * Return: 
  34:.\Generated_Source\PSoC5/USBFS_Dp.c **** *  void 
  35:.\Generated_Source\PSoC5/USBFS_Dp.c **** *  
  36:.\Generated_Source\PSoC5/USBFS_Dp.c **** *******************************************************************************/
  37:.\Generated_Source\PSoC5/USBFS_Dp.c **** void USBFS_Dp_Write(uint8 value) 
  38:.\Generated_Source\PSoC5/USBFS_Dp.c **** {
  32              		.loc 1 38 0
  33              		.cfi_startproc
  34              		@ args = 0, pretend = 0, frame = 16
  35              		@ frame_needed = 1, uses_anonymous_args = 0
  36              		@ link register save eliminated.
  37 0000 80B4     		push	{r7}
  38              	.LCFI0:
  39              		.cfi_def_cfa_offset 4
  40 0002 85B0     		sub	sp, sp, #20
  41              	.LCFI1:
  42              		.cfi_def_cfa_offset 24
  43 0004 00AF     		add	r7, sp, #0
  44              		.cfi_offset 7, -4
  45              	.LCFI2:
  46              		.cfi_def_cfa_register 7
  47 0006 0346     		mov	r3, r0
  48 0008 FB71     		strb	r3, [r7, #7]
  39:.\Generated_Source\PSoC5/USBFS_Dp.c ****     uint8 staticBits = USBFS_Dp_DR & ~USBFS_Dp_MASK;
  49              		.loc 1 39 0
  50 000a 45F2F013 		movw	r3, #:lower16:1073762800
  51 000e C4F20003 		movt	r3, #:upper16:1073762800
  52 0012 1B78     		ldrb	r3, [r3, #0]
  53 0014 DBB2     		uxtb	r3, r3
  54 0016 23F04003 		bic	r3, r3, #64
  55 001a FB73     		strb	r3, [r7, #15]
  40:.\Generated_Source\PSoC5/USBFS_Dp.c ****     USBFS_Dp_DR = staticBits | ((value << USBFS_Dp_SHIFT) & USBFS_Dp_MASK);
  56              		.loc 1 40 0
  57 001c 45F2F013 		movw	r3, #:lower16:1073762800
  58 0020 C4F20003 		movt	r3, #:upper16:1073762800
  59 0024 FA79     		ldrb	r2, [r7, #7]
  60 0026 4FEA8212 		lsl	r2, r2, #6
  61 002a D2B2     		uxtb	r2, r2
  62 002c 02F04002 		and	r2, r2, #64
  63 0030 F97B     		ldrb	r1, [r7, #15]
  64 0032 42EA0102 		orr	r2, r2, r1
  65 0036 D2B2     		uxtb	r2, r2
  66 0038 1A70     		strb	r2, [r3, #0]
  41:.\Generated_Source\PSoC5/USBFS_Dp.c **** }
  67              		.loc 1 41 0
  68 003a 07F11407 		add	r7, r7, #20
  69 003e BD46     		mov	sp, r7
ARM GAS  C:\Users\KEVIN-~1\AppData\Local\Temp\ccjYe5ro.s 			page 3


  70 0040 80BC     		pop	{r7}
  71 0042 7047     		bx	lr
  72              		.cfi_endproc
  73              	.LFE0:
  74              		.size	USBFS_Dp_Write, .-USBFS_Dp_Write
  75              		.section	.text.USBFS_Dp_SetDriveMode,"ax",%progbits
  76              		.align	2
  77              		.global	USBFS_Dp_SetDriveMode
  78              		.thumb
  79              		.thumb_func
  80              		.type	USBFS_Dp_SetDriveMode, %function
  81              	USBFS_Dp_SetDriveMode:
  82              	.LFB1:
  42:.\Generated_Source\PSoC5/USBFS_Dp.c **** 
  43:.\Generated_Source\PSoC5/USBFS_Dp.c **** 
  44:.\Generated_Source\PSoC5/USBFS_Dp.c **** /*******************************************************************************
  45:.\Generated_Source\PSoC5/USBFS_Dp.c **** * Function Name: USBFS_Dp_SetDriveMode
  46:.\Generated_Source\PSoC5/USBFS_Dp.c **** ********************************************************************************
  47:.\Generated_Source\PSoC5/USBFS_Dp.c **** * Summary:
  48:.\Generated_Source\PSoC5/USBFS_Dp.c **** *  Change the drive mode on the pins of the port.
  49:.\Generated_Source\PSoC5/USBFS_Dp.c **** * 
  50:.\Generated_Source\PSoC5/USBFS_Dp.c **** * Parameters:  
  51:.\Generated_Source\PSoC5/USBFS_Dp.c **** *  mode:  Change the pins to this drive mode.
  52:.\Generated_Source\PSoC5/USBFS_Dp.c **** *
  53:.\Generated_Source\PSoC5/USBFS_Dp.c **** * Return: 
  54:.\Generated_Source\PSoC5/USBFS_Dp.c **** *  void
  55:.\Generated_Source\PSoC5/USBFS_Dp.c **** *
  56:.\Generated_Source\PSoC5/USBFS_Dp.c **** *******************************************************************************/
  57:.\Generated_Source\PSoC5/USBFS_Dp.c **** void USBFS_Dp_SetDriveMode(uint8 mode) 
  58:.\Generated_Source\PSoC5/USBFS_Dp.c **** {
  83              		.loc 1 58 0
  84              		.cfi_startproc
  85              		@ args = 0, pretend = 0, frame = 8
  86              		@ frame_needed = 1, uses_anonymous_args = 0
  87              		@ link register save eliminated.
  88 0000 80B4     		push	{r7}
  89              	.LCFI3:
  90              		.cfi_def_cfa_offset 4
  91 0002 83B0     		sub	sp, sp, #12
  92              	.LCFI4:
  93              		.cfi_def_cfa_offset 16
  94 0004 00AF     		add	r7, sp, #0
  95              		.cfi_offset 7, -4
  96              	.LCFI5:
  97              		.cfi_def_cfa_register 7
  98 0006 0346     		mov	r3, r0
  99 0008 FB71     		strb	r3, [r7, #7]
  59:.\Generated_Source\PSoC5/USBFS_Dp.c **** 	CyPins_SetPinDriveMode(USBFS_Dp_0, mode);
 100              		.loc 1 59 0
 101 000a 45F27E03 		movw	r3, #:lower16:1073762430
 102 000e C4F20003 		movt	r3, #:upper16:1073762430
 103 0012 45F27E02 		movw	r2, #:lower16:1073762430
 104 0016 C4F20002 		movt	r2, #:upper16:1073762430
 105 001a 1278     		ldrb	r2, [r2, #0]
 106 001c D2B2     		uxtb	r2, r2
 107 001e 1146     		mov	r1, r2
 108 0020 01F0F101 		and	r1, r1, #241
ARM GAS  C:\Users\KEVIN-~1\AppData\Local\Temp\ccjYe5ro.s 			page 4


 109 0024 FA79     		ldrb	r2, [r7, #7]	@ zero_extendqisi2
 110 0026 02F00E02 		and	r2, r2, #14
 111 002a 41EA0202 		orr	r2, r1, r2
 112 002e D2B2     		uxtb	r2, r2
 113 0030 1A70     		strb	r2, [r3, #0]
  60:.\Generated_Source\PSoC5/USBFS_Dp.c **** }
 114              		.loc 1 60 0
 115 0032 07F10C07 		add	r7, r7, #12
 116 0036 BD46     		mov	sp, r7
 117 0038 80BC     		pop	{r7}
 118 003a 7047     		bx	lr
 119              		.cfi_endproc
 120              	.LFE1:
 121              		.size	USBFS_Dp_SetDriveMode, .-USBFS_Dp_SetDriveMode
 122              		.section	.text.USBFS_Dp_Read,"ax",%progbits
 123              		.align	2
 124              		.global	USBFS_Dp_Read
 125              		.thumb
 126              		.thumb_func
 127              		.type	USBFS_Dp_Read, %function
 128              	USBFS_Dp_Read:
 129              	.LFB2:
  61:.\Generated_Source\PSoC5/USBFS_Dp.c **** 
  62:.\Generated_Source\PSoC5/USBFS_Dp.c **** 
  63:.\Generated_Source\PSoC5/USBFS_Dp.c **** /*******************************************************************************
  64:.\Generated_Source\PSoC5/USBFS_Dp.c **** * Function Name: USBFS_Dp_Read
  65:.\Generated_Source\PSoC5/USBFS_Dp.c **** ********************************************************************************
  66:.\Generated_Source\PSoC5/USBFS_Dp.c **** * Summary:
  67:.\Generated_Source\PSoC5/USBFS_Dp.c **** *  Read the current value on the pins of the Digital Port in right justified 
  68:.\Generated_Source\PSoC5/USBFS_Dp.c **** *  form.
  69:.\Generated_Source\PSoC5/USBFS_Dp.c **** *
  70:.\Generated_Source\PSoC5/USBFS_Dp.c **** * Parameters:  
  71:.\Generated_Source\PSoC5/USBFS_Dp.c **** *  void 
  72:.\Generated_Source\PSoC5/USBFS_Dp.c **** *
  73:.\Generated_Source\PSoC5/USBFS_Dp.c **** * Return: 
  74:.\Generated_Source\PSoC5/USBFS_Dp.c **** *  Returns the current value of the Digital Port as a right justified number
  75:.\Generated_Source\PSoC5/USBFS_Dp.c **** *  
  76:.\Generated_Source\PSoC5/USBFS_Dp.c **** * Note:
  77:.\Generated_Source\PSoC5/USBFS_Dp.c **** *  Macro USBFS_Dp_ReadPS calls this function. 
  78:.\Generated_Source\PSoC5/USBFS_Dp.c **** *  
  79:.\Generated_Source\PSoC5/USBFS_Dp.c **** *******************************************************************************/
  80:.\Generated_Source\PSoC5/USBFS_Dp.c **** uint8 USBFS_Dp_Read(void) 
  81:.\Generated_Source\PSoC5/USBFS_Dp.c **** {
 130              		.loc 1 81 0
 131              		.cfi_startproc
 132              		@ args = 0, pretend = 0, frame = 0
 133              		@ frame_needed = 1, uses_anonymous_args = 0
 134              		@ link register save eliminated.
 135 0000 80B4     		push	{r7}
 136              	.LCFI6:
 137              		.cfi_def_cfa_offset 4
 138 0002 00AF     		add	r7, sp, #0
 139              		.cfi_offset 7, -4
 140              	.LCFI7:
 141              		.cfi_def_cfa_register 7
  82:.\Generated_Source\PSoC5/USBFS_Dp.c ****     return (USBFS_Dp_PS & USBFS_Dp_MASK) >> USBFS_Dp_SHIFT;
 142              		.loc 1 82 0
ARM GAS  C:\Users\KEVIN-~1\AppData\Local\Temp\ccjYe5ro.s 			page 5


 143 0004 45F2F113 		movw	r3, #:lower16:1073762801
 144 0008 C4F20003 		movt	r3, #:upper16:1073762801
 145 000c 1B78     		ldrb	r3, [r3, #0]
 146 000e DBB2     		uxtb	r3, r3
 147 0010 03F04003 		and	r3, r3, #64
 148 0014 4FEA9313 		lsr	r3, r3, #6
 149 0018 DBB2     		uxtb	r3, r3
  83:.\Generated_Source\PSoC5/USBFS_Dp.c **** }
 150              		.loc 1 83 0
 151 001a 1846     		mov	r0, r3
 152 001c BD46     		mov	sp, r7
 153 001e 80BC     		pop	{r7}
 154 0020 7047     		bx	lr
 155              		.cfi_endproc
 156              	.LFE2:
 157              		.size	USBFS_Dp_Read, .-USBFS_Dp_Read
 158 0022 00BF     		.section	.text.USBFS_Dp_ReadDataReg,"ax",%progbits
 159              		.align	2
 160              		.global	USBFS_Dp_ReadDataReg
 161              		.thumb
 162              		.thumb_func
 163              		.type	USBFS_Dp_ReadDataReg, %function
 164              	USBFS_Dp_ReadDataReg:
 165              	.LFB3:
  84:.\Generated_Source\PSoC5/USBFS_Dp.c **** 
  85:.\Generated_Source\PSoC5/USBFS_Dp.c **** 
  86:.\Generated_Source\PSoC5/USBFS_Dp.c **** /*******************************************************************************
  87:.\Generated_Source\PSoC5/USBFS_Dp.c **** * Function Name: USBFS_Dp_ReadDataReg
  88:.\Generated_Source\PSoC5/USBFS_Dp.c **** ********************************************************************************
  89:.\Generated_Source\PSoC5/USBFS_Dp.c **** * Summary:
  90:.\Generated_Source\PSoC5/USBFS_Dp.c **** *  Read the current value assigned to a Digital Port's data output register
  91:.\Generated_Source\PSoC5/USBFS_Dp.c **** *
  92:.\Generated_Source\PSoC5/USBFS_Dp.c **** * Parameters:  
  93:.\Generated_Source\PSoC5/USBFS_Dp.c **** *  void 
  94:.\Generated_Source\PSoC5/USBFS_Dp.c **** *
  95:.\Generated_Source\PSoC5/USBFS_Dp.c **** * Return: 
  96:.\Generated_Source\PSoC5/USBFS_Dp.c **** *  Returns the current value assigned to the Digital Port's data output register
  97:.\Generated_Source\PSoC5/USBFS_Dp.c **** *  
  98:.\Generated_Source\PSoC5/USBFS_Dp.c **** *******************************************************************************/
  99:.\Generated_Source\PSoC5/USBFS_Dp.c **** uint8 USBFS_Dp_ReadDataReg(void) 
 100:.\Generated_Source\PSoC5/USBFS_Dp.c **** {
 166              		.loc 1 100 0
 167              		.cfi_startproc
 168              		@ args = 0, pretend = 0, frame = 0
 169              		@ frame_needed = 1, uses_anonymous_args = 0
 170              		@ link register save eliminated.
 171 0000 80B4     		push	{r7}
 172              	.LCFI8:
 173              		.cfi_def_cfa_offset 4
 174 0002 00AF     		add	r7, sp, #0
 175              		.cfi_offset 7, -4
 176              	.LCFI9:
 177              		.cfi_def_cfa_register 7
 101:.\Generated_Source\PSoC5/USBFS_Dp.c ****     return (USBFS_Dp_DR & USBFS_Dp_MASK) >> USBFS_Dp_SHIFT;
 178              		.loc 1 101 0
 179 0004 45F2F013 		movw	r3, #:lower16:1073762800
 180 0008 C4F20003 		movt	r3, #:upper16:1073762800
ARM GAS  C:\Users\KEVIN-~1\AppData\Local\Temp\ccjYe5ro.s 			page 6


 181 000c 1B78     		ldrb	r3, [r3, #0]
 182 000e DBB2     		uxtb	r3, r3
 183 0010 03F04003 		and	r3, r3, #64
 184 0014 4FEA9313 		lsr	r3, r3, #6
 185 0018 DBB2     		uxtb	r3, r3
 102:.\Generated_Source\PSoC5/USBFS_Dp.c **** }
 186              		.loc 1 102 0
 187 001a 1846     		mov	r0, r3
 188 001c BD46     		mov	sp, r7
 189 001e 80BC     		pop	{r7}
 190 0020 7047     		bx	lr
 191              		.cfi_endproc
 192              	.LFE3:
 193              		.size	USBFS_Dp_ReadDataReg, .-USBFS_Dp_ReadDataReg
 194 0022 00BF     		.section	.text.USBFS_Dp_ClearInterrupt,"ax",%progbits
 195              		.align	2
 196              		.global	USBFS_Dp_ClearInterrupt
 197              		.thumb
 198              		.thumb_func
 199              		.type	USBFS_Dp_ClearInterrupt, %function
 200              	USBFS_Dp_ClearInterrupt:
 201              	.LFB4:
 103:.\Generated_Source\PSoC5/USBFS_Dp.c **** 
 104:.\Generated_Source\PSoC5/USBFS_Dp.c **** 
 105:.\Generated_Source\PSoC5/USBFS_Dp.c **** /* If Interrupts Are Enabled for this Pins component */ 
 106:.\Generated_Source\PSoC5/USBFS_Dp.c **** #if defined(USBFS_Dp_INTSTAT) 
 107:.\Generated_Source\PSoC5/USBFS_Dp.c **** 
 108:.\Generated_Source\PSoC5/USBFS_Dp.c ****     /*******************************************************************************
 109:.\Generated_Source\PSoC5/USBFS_Dp.c ****     * Function Name: USBFS_Dp_ClearInterrupt
 110:.\Generated_Source\PSoC5/USBFS_Dp.c ****     ********************************************************************************
 111:.\Generated_Source\PSoC5/USBFS_Dp.c ****     * Summary:
 112:.\Generated_Source\PSoC5/USBFS_Dp.c ****     *  Clears any active interrupts attached to port and returns the value of the 
 113:.\Generated_Source\PSoC5/USBFS_Dp.c ****     *  interrupt status register.
 114:.\Generated_Source\PSoC5/USBFS_Dp.c ****     *
 115:.\Generated_Source\PSoC5/USBFS_Dp.c ****     * Parameters:  
 116:.\Generated_Source\PSoC5/USBFS_Dp.c ****     *  void 
 117:.\Generated_Source\PSoC5/USBFS_Dp.c ****     *
 118:.\Generated_Source\PSoC5/USBFS_Dp.c ****     * Return: 
 119:.\Generated_Source\PSoC5/USBFS_Dp.c ****     *  Returns the value of the interrupt status register
 120:.\Generated_Source\PSoC5/USBFS_Dp.c ****     *  
 121:.\Generated_Source\PSoC5/USBFS_Dp.c ****     *******************************************************************************/
 122:.\Generated_Source\PSoC5/USBFS_Dp.c ****     uint8 USBFS_Dp_ClearInterrupt(void) 
 123:.\Generated_Source\PSoC5/USBFS_Dp.c ****     {
 202              		.loc 1 123 0
 203              		.cfi_startproc
 204              		@ args = 0, pretend = 0, frame = 0
 205              		@ frame_needed = 1, uses_anonymous_args = 0
 206              		@ link register save eliminated.
 207 0000 80B4     		push	{r7}
 208              	.LCFI10:
 209              		.cfi_def_cfa_offset 4
 210 0002 00AF     		add	r7, sp, #0
 211              		.cfi_offset 7, -4
 212              	.LCFI11:
 213              		.cfi_def_cfa_register 7
 124:.\Generated_Source\PSoC5/USBFS_Dp.c ****         return (USBFS_Dp_INTSTAT & USBFS_Dp_MASK) >> USBFS_Dp_SHIFT;
 214              		.loc 1 124 0
ARM GAS  C:\Users\KEVIN-~1\AppData\Local\Temp\ccjYe5ro.s 			page 7


 215 0004 44F28F53 		movw	r3, #:lower16:1073759631
 216 0008 C4F20003 		movt	r3, #:upper16:1073759631
 217 000c 1B78     		ldrb	r3, [r3, #0]
 218 000e DBB2     		uxtb	r3, r3
 219 0010 03F04003 		and	r3, r3, #64
 220 0014 4FEA9313 		lsr	r3, r3, #6
 221 0018 DBB2     		uxtb	r3, r3
 125:.\Generated_Source\PSoC5/USBFS_Dp.c ****     }
 222              		.loc 1 125 0
 223 001a 1846     		mov	r0, r3
 224 001c BD46     		mov	sp, r7
 225 001e 80BC     		pop	{r7}
 226 0020 7047     		bx	lr
 227              		.cfi_endproc
 228              	.LFE4:
 229              		.size	USBFS_Dp_ClearInterrupt, .-USBFS_Dp_ClearInterrupt
 230 0022 00BF     		.text
 231              	.Letext0: